	.file	"gemmu16.cpp"
	.machinemode zarch
	.machine "arch13"
.text
	.align	8
	.align	16
.globl _Z10addResults11offset_typeiiddPiiS0_iPKi
	.type	_Z10addResults11offset_typeiiddPiiS0_iPKi, @function
_Z10addResults11offset_typeiiddPiiS0_iPKi:
.LFB4512:
	.cfi_startproc
	stmg	%r6,%r13,48(%r15)
	.cfi_offset 6, -112
	.cfi_offset 7, -104
	.cfi_offset 8, -96
	.cfi_offset 9, -88
	.cfi_offset 10, -80
	.cfi_offset 11, -72
	.cfi_offset 12, -64
	.cfi_offset 13, -56
	larl	%r13,.L89
	lg	%r11,176(%r15)
	lgf	%r10,172(%r15)
	cije	%r2,1,.L68
	lzdr	%f4
	cije	%r2,2,.L69
	cije	%r2,3,.L70
	cdbr	%f2,%f4
	je	.L71
	cdb	%f2,.L90-.L89(%r13)
	je	.L1
	cijle	%r4,0,.L1
	cijle	%r3,0,.L1
	lg	%r8,160(%r15)
	ahik	%r1,%r3,-1
	sllg	%r11,%r10,2
	llgfr	%r1,%r1
	sllg	%r0,%r6,2
	la	%r10,1(%r1)
	lr	%r2,%r4
	sllg	%r1,%r1,2
	lcgr	%r10,%r10
	la	%r5,4(%r1,%r5)
	sllg	%r10,%r10,2
.L33:
	agrk	%r4,%r10,%r5
	lgr	%r9,%r8
	j	.L32
.L73:
	cdb	%f4,.L91-.L89(%r13)
	jnh	.L31
	ld	%f4,.L91-.L89(%r13)
.L31:
	fidbra	%f4,0,%f4,4
	aghi	%r9,4
	aghi	%r4,4
	cfdbr	%r1,5,%f4
	sty	%r1,-4(%r4)
	cgrje	%r5,%r4,.L72
.L32:
	l	%r3,0(%r9)
	l	%r1,0(%r4)
	cdfbr	%f6,%r3
	cdfbr	%f4,%r1
	mdbr	%f6,%f0
	wfmadb	%v4,%v2,%v4,%v6
	cdb	%f4,.L92-.L89(%r13)
	jnl	.L73
	ld	%f4,.L92-.L89(%r13)
	aghi	%r9,4
	fidbra	%f4,0,%f4,4
	aghi	%r4,4
	cfdbr	%r1,5,%f4
	sty	%r1,-4(%r4)
	cgrjlh	%r5,%r4,.L32
.L72:
	agr	%r5,%r0
	agr	%r8,%r11
	brct	%r2,.L33
.L1:
	lmg	%r6,%r13,48(%r15)
	.cfi_remember_state
	.cfi_restore 13
	.cfi_restore 12
	.cfi_restore 11
	.cfi_restore 10
	.cfi_restore 9
	.cfi_restore 8
	.cfi_restore 7
	.cfi_restore 6
	br	%r14
.L69:
	.cfi_restore_state
	cdbr	%f2,%f4
	jne	.L12
	cijle	%r4,0,.L1
	cijle	%r3,0,.L1
	ahik	%r2,%r4,-1
	llgfr	%r2,%r2
	aghik	%r8,%r2,1
	lg	%r2,160(%r15)
	ahik	%r1,%r3,-1
	sllg	%r10,%r10,2
	llgfr	%r1,%r1
	sllg	%r0,%r6,2
	la	%r9,1(%r1)
	sllg	%r1,%r1,2
	lcgr	%r9,%r9
	la	%r4,4(%r2,%r1)
	sllg	%r9,%r9,2
.L15:
	agrk	%r2,%r9,%r4
	lgr	%r3,%r5
	j	.L14
.L75:
	cdb	%f2,.L91-.L89(%r13)
	jnh	.L13
	ld	%f2,.L91-.L89(%r13)
.L13:
	fidbra	%f2,0,%f2,4
	aghi	%r2,4
	aghi	%r3,4
	cfdbr	%r1,5,%f2
	a	%r1,0(%r11)
	sty	%r1,-4(%r3)
	cgrje	%r4,%r2,.L74
.L14:
	l	%r1,0(%r2)
	cdfbr	%f2,%r1
	mdbr	%f2,%f0
	cdb	%f2,.L92-.L89(%r13)
	jnl	.L75
	ld	%f2,.L92-.L89(%r13)
	aghi	%r2,4
	fidbra	%f2,0,%f2,4
	aghi	%r3,4
	cfdbr	%r1,5,%f2
	a	%r1,0(%r11)
	sty	%r1,-4(%r3)
	cgrjlh	%r4,%r2,.L14
.L74:
	aghi	%r11,4
	agr	%r4,%r10
	agr	%r5,%r0
	brctg	%r8,.L15
	j	.L1
.L68:
	lzdr	%f4
	cdbr	%f2,%f4
	je	.L76
	cdb	%f2,.L90-.L89(%r13)
	je	.L1
	cijle	%r4,0,.L1
	cijle	%r3,0,.L1
	lg	%r7,160(%r15)
	ahik	%r1,%r3,-1
	sllg	%r0,%r6,2
	llgfr	%r1,%r1
	sllg	%r10,%r10,2
	la	%r9,1(%r1)
	lr	%r2,%r4
	sllg	%r1,%r1,2
	lcgr	%r9,%r9
	la	%r5,4(%r1,%r5)
	sllg	%r9,%r9,2
.L10:
	agrk	%r3,%r9,%r5
	lgr	%r4,%r7
	j	.L9
.L78:
	cdb	%f4,.L91-.L89(%r13)
	jnh	.L8
	ld	%f4,.L91-.L89(%r13)
.L8:
	fidbra	%f4,0,%f4,4
	aghi	%r4,4
	aghi	%r3,4
	cfdbr	%r1,5,%f4
	a	%r1,0(%r11)
	sty	%r1,-4(%r3)
	cgrje	%r5,%r3,.L77
.L9:
	l	%r8,0(%r4)
	l	%r1,0(%r3)
	cdfbr	%f6,%r8
	cdfbr	%f4,%r1
	mdbr	%f6,%f0
	wfmadb	%v4,%v2,%v4,%v6
	cdb	%f4,.L92-.L89(%r13)
	jnl	.L78
	ld	%f4,.L92-.L89(%r13)
	aghi	%r4,4
	fidbra	%f4,0,%f4,4
	aghi	%r3,4
	cfdbr	%r1,5,%f4
	a	%r1,0(%r11)
	sty	%r1,-4(%r3)
	cgrjlh	%r5,%r3,.L9
.L77:
	agr	%r5,%r0
	agr	%r7,%r10
	brct	%r2,.L10
	j	.L1
.L76:
	cijle	%r4,0,.L1
	cijle	%r3,0,.L1
	ahik	%r1,%r3,-1
	lg	%r3,160(%r15)
	llgfr	%r1,%r1
	lgr	%r8,%r5
	la	%r9,1(%r1)
	sllg	%r10,%r10,2
	sllg	%r1,%r1,2
	lcgr	%r9,%r9
	sllg	%r0,%r6,2
	lr	%r2,%r4
	la	%r5,4(%r3,%r1)
	sllg	%r9,%r9,2
.L7:
	agrk	%r3,%r9,%r5
	lgr	%r4,%r8
	j	.L6
.L80:
	cdb	%f2,.L91-.L89(%r13)
	jnh	.L5
	ld	%f2,.L91-.L89(%r13)
.L5:
	fidbra	%f2,0,%f2,4
	aghi	%r3,4
	aghi	%r4,4
	cfdbr	%r1,5,%f2
	a	%r1,0(%r11)
	sty	%r1,-4(%r4)
	cgrje	%r3,%r5,.L79
.L6:
	l	%r1,0(%r3)
	cdfbr	%f2,%r1
	mdbr	%f2,%f0
	cdb	%f2,.L92-.L89(%r13)
	jnl	.L80
	ld	%f2,.L92-.L89(%r13)
	aghi	%r3,4
	fidbra	%f2,0,%f2,4
	aghi	%r4,4
	cfdbr	%r1,5,%f2
	a	%r1,0(%r11)
	sty	%r1,-4(%r4)
	cgrjlh	%r3,%r5,.L6
.L79:
	agr	%r5,%r10
	agr	%r8,%r0
	brct	%r2,.L7
	lmg	%r6,%r13,48(%r15)
	.cfi_remember_state
	.cfi_restore 13
	.cfi_restore 12
	.cfi_restore 11
	.cfi_restore 10
	.cfi_restore 9
	.cfi_restore 8
	.cfi_restore 7
	.cfi_restore 6
	br	%r14
.L71:
	.cfi_restore_state
	cijle	%r4,0,.L1
	cijle	%r3,0,.L1
	lg	%r11,160(%r15)
	ahi	%r3,-1
	sllg	%r0,%r6,2
	risbgn	%r3,%r3,30,128+61,2
	sllg	%r10,%r10,2
	la	%r9,4(%r3)
	lr	%r2,%r4
.L30:
	lghi	%r3,0
	j	.L29
.L82:
	cdb	%f2,.L91-.L89(%r13)
	jnh	.L28
	ld	%f2,.L91-.L89(%r13)
.L28:
	fidbra	%f2,0,%f2,4
	cfdbr	%r1,5,%f2
	st	%r1,0(%r5,%r3)
	aghi	%r3,4
	cgrje	%r3,%r9,.L81
.L29:
	l	%r1,0(%r11,%r3)
	cdfbr	%f2,%r1
	mdbr	%f2,%f0
	cdb	%f2,.L92-.L89(%r13)
	jnl	.L82
	ld	%f2,.L92-.L89(%r13)
	fidbra	%f2,0,%f2,4
	cfdbr	%r1,5,%f2
	st	%r1,0(%r5,%r3)
	aghi	%r3,4
	cgrjlh	%r3,%r9,.L29
.L81:
	agr	%r5,%r0
	agr	%r11,%r10
	brct	%r2,.L30
	lmg	%r6,%r13,48(%r15)
	.cfi_remember_state
	.cfi_restore 13
	.cfi_restore 12
	.cfi_restore 11
	.cfi_restore 10
	.cfi_restore 9
	.cfi_restore 8
	.cfi_restore 7
	.cfi_restore 6
	br	%r14
.L12:
	.cfi_restore_state
	cdb	%f2,.L90-.L89(%r13)
	je	.L1
	cijle	%r4,0,.L1
	cijle	%r3,0,.L1
	lg	%r7,160(%r15)
	ahik	%r2,%r4,-1
	ahik	%r1,%r3,-1
	llgfr	%r2,%r2
	llgfr	%r1,%r1
	sllg	%r0,%r10,2
	aghik	%r8,%r2,1
	la	%r10,1(%r1)
	sllg	%r4,%r6,2
	sllg	%r1,%r1,2
	lcgr	%r10,%r10
	la	%r5,4(%r1,%r5)
	sllg	%r10,%r10,2
.L18:
	agrk	%r3,%r10,%r5
	lgr	%r9,%r7
	j	.L17
.L84:
	cdb	%f4,.L91-.L89(%r13)
	jnh	.L16
	ld	%f4,.L91-.L89(%r13)
.L16:
	fidbra	%f4,0,%f4,4
	aghi	%r9,4
	aghi	%r3,4
	cfdbr	%r1,5,%f4
	a	%r1,0(%r11)
	sty	%r1,-4(%r3)
	cgrje	%r3,%r5,.L83
.L17:
	l	%r2,0(%r9)
	l	%r1,0(%r3)
	cdfbr	%f6,%r2
	cdfbr	%f4,%r1
	mdbr	%f6,%f0
	wfmadb	%v4,%v4,%v2,%v6
	cdb	%f4,.L92-.L89(%r13)
	jnl	.L84
	ld	%f4,.L92-.L89(%r13)
	aghi	%r9,4
	fidbra	%f4,0,%f4,4
	aghi	%r3,4
	cfdbr	%r1,5,%f4
	a	%r1,0(%r11)
	sty	%r1,-4(%r3)
	cgrjlh	%r3,%r5,.L17
.L83:
	aghi	%r11,4
	agr	%r5,%r4
	agr	%r7,%r0
	brctg	%r8,.L18
	j	.L1
.L70:
	cdbr	%f2,%f4
	jne	.L20
	cijle	%r4,0,.L1
	cijle	%r3,0,.L1
	ahik	%r1,%r3,-1
	lg	%r3,160(%r15)
	llgfr	%r1,%r1
	sllg	%r10,%r10,2
	la	%r8,1(%r1)
	sllg	%r0,%r6,2
	sllg	%r1,%r1,2
	lcgr	%r8,%r8
	lgr	%r7,%r5
	lr	%r2,%r4
	la	%r9,4(%r3,%r1)
	sllg	%r8,%r8,2
.L23:
	agrk	%r3,%r8,%r9
	lgr	%r5,%r11
	lgr	%r4,%r7
	j	.L22
.L86:
	cdb	%f2,.L91-.L89(%r13)
	jnh	.L21
	ld	%f2,.L91-.L89(%r13)
.L21:
	fidbra	%f2,0,%f2,4
	aghi	%r3,4
	aghi	%r5,4
	aghi	%r4,4
	cfdbr	%r1,5,%f2
	ay	%r1,-4(%r5)
	sty	%r1,-4(%r4)
	cgrje	%r3,%r9,.L85
.L22:
	l	%r1,0(%r3)
	cdfbr	%f2,%r1
	mdbr	%f2,%f0
	cdb	%f2,.L92-.L89(%r13)
	jnl	.L86
	ld	%f2,.L92-.L89(%r13)
	j	.L21
.L85:
	agr	%r9,%r10
	agr	%r7,%r0
	brct	%r2,.L23
	j	.L1
.L20:
	cdb	%f2,.L90-.L89(%r13)
	je	.L1
	cijle	%r4,0,.L1
	cijle	%r3,0,.L1
	sllg	%r0,%r6,2
	lg	%r6,160(%r15)
	ahik	%r1,%r3,-1
	sllg	%r10,%r10,2
	llgfr	%r1,%r1
	lr	%r2,%r4
	la	%r8,1(%r1)
	sllg	%r1,%r1,2
	lcgr	%r8,%r8
	la	%r9,4(%r1,%r5)
	sllg	%r8,%r8,2
.L26:
	agrk	%r3,%r8,%r9
	lgr	%r5,%r11
	lgr	%r4,%r6
	j	.L25
.L88:
	cdb	%f4,.L91-.L89(%r13)
	jnh	.L24
	ld	%f4,.L91-.L89(%r13)
.L24:
	fidbra	%f4,0,%f4,4
	aghi	%r4,4
	aghi	%r3,4
	aghi	%r5,4
	cfdbr	%r1,5,%f4
	ay	%r1,-4(%r5)
	sty	%r1,-4(%r3)
	cgrje	%r9,%r3,.L87
.L25:
	l	%r7,0(%r4)
	l	%r1,0(%r3)
	cdfbr	%f6,%r7
	cdfbr	%f4,%r1
	mdbr	%f6,%f0
	wfmadb	%v4,%v2,%v4,%v6
	cdb	%f4,.L92-.L89(%r13)
	jnl	.L88
	ld	%f4,.L92-.L89(%r13)
	j	.L24
.L87:
	agr	%r9,%r0
	agr	%r6,%r10
	brct	%r2,.L26
	j	.L1
	.section	.rodata
	.align	8
.L89:
.L92:
	.long	-1042284544
	.long	0
.L91:
	.long	1105199103
	.long	4290772992
.L90:
	.long	1072693248
	.long	0
	.align	2
.text
	.cfi_endproc
.LFE4512:
	.size	_Z10addResults11offset_typeiiddPiiS0_iPKi, .-_Z10addResults11offset_typeiiddPiiS0_iPKi
	.section	.text._Z6pack_KIhsLi4ELi2ELb1EEviiPKT_iPT0_S3_,"axG",@progbits,_Z6pack_KIhsLi4ELi2ELb1EEviiPKT_iPT0_S3_,comdat
	.align	8
	.align	16
	.weak	_Z6pack_KIhsLi4ELi2ELb1EEviiPKT_iPT0_S3_
	.type	_Z6pack_KIhsLi4ELi2ELb1EEviiPKT_iPT0_S3_, @function
_Z6pack_KIhsLi4ELi2ELb1EEviiPKT_iPT0_S3_:
.LFB4894:
	.cfi_startproc
	stmg	%r6,%r15,48(%r15)
	.cfi_offset 6, -112
	.cfi_offset 7, -104
	.cfi_offset 8, -96
	.cfi_offset 9, -88
	.cfi_offset 10, -80
	.cfi_offset 11, -72
	.cfi_offset 12, -64
	.cfi_offset 13, -56
	.cfi_offset 14, -48
	.cfi_offset 15, -40
	larl	%r13,.L224
	lgr	%r1,%r15
	lay	%r15,-1488(%r15)
	.cfi_def_cfa_offset 1648
	aghi	%r1,-16
	std	%f8,0(%r1)
	std	%f10,8(%r1)
	.cfi_offset 24, -176
	.cfi_offset 25, -168
	lr	%r1,%r2
	stg	%r2,208(%r15)
	ahi	%r1,1
	stg	%r4,176(%r15)
	nill	%r1,65534
	stg	%r6,488(%r15)
	st	%r1,1300(%r15)
	risbg	%r1,%r3,62,128+32,0
	st	%r1,580(%r15)
	lgr	%r9,%r5
	lgh	%r7,1654(%r15)
	cijhe	%r3,0,.L94
	asi	580(%r15),-1
	l	%r1,580(%r15)
	oilf	%r1,4294967292
	st	%r1,580(%r15)
	asi	580(%r15),1
.L94:
	lr	%r1,%r3
	s	%r1,580(%r15)
	st	%r1,232(%r15)
	cijle	%r1,0,.L95
	lg	%r0,208(%r15)
	sllg	%r4,%r9,1
	stg	%r4,184(%r15)
	lr	%r2,%r0
	nilf	%r2,1
	st	%r2,336(%r15)
	risbg	%r3,%r0,32,128+62,0
	lr	%r1,%r0
	srl	%r1,31
	ar	%r1,%r0
	srak	%r5,%r1,1
	llgfr	%r2,%r5
	aghi	%r2,-1
	chi	%r0,1
	lgr	%r1,%r2
	locghinh	%r1,0
	msgr	%r1,%r4
	lgr	%r4,%r9
	msgfr	%r4,%r3
	sllg	%r2,%r2,4
	lgr	%r11,%r9
	lgr	%r6,%r9
	stg	%r4,664(%r15)
	aghik	%r3,%r1,3
	ltgr	%r9,%r9
	locghinhe	%r3,3
	stg	%r3,344(%r15)
	aghi	%r2,15
	agrk	%r3,%r9,%r3
	stg	%r3,312(%r15)
	chi	%r0,1
	locghinh	%r2,15
	stg	%r2,320(%r15)
	ltgr	%r9,%r9
	locghinl	%r1,0
	stg	%r1,352(%r15)
	agrk	%r1,%r9,%r1
	stg	%r1,328(%r15)
	chi	%r0,1
	lr	%r3,%r5
	lgr	%r1,%r9
	lochinh	%r3,1
	st	%r3,368(%r15)
	mghi	%r1,22
	risbg	%r4,%r3,32,128+59,0
	st	%r5,340(%r15)
	stg	%r1,256(%r15)
	lgr	%r1,%r9
	mghi	%r1,26
	st	%r4,372(%r15)
	sllg	%r8,%r9,3
	stg	%r1,264(%r15)
	sllk	%r1,%r4,1
	ahik	%r3,%r1,1
	msgfr	%r11,%r3
	ahik	%r3,%r1,3
	ahik	%r2,%r1,2
	msgfr	%r6,%r2
	stg	%r11,360(%r15)
	lgr	%r11,%r9
	msgfr	%r11,%r3
	stg	%r6,512(%r15)
	ahik	%r2,%r1,4
	ahik	%r3,%r1,5
	stg	%r11,424(%r15)
	lgr	%r11,%r9
	msgfr	%r11,%r2
	ahik	%r2,%r1,6
	vl	%v20,.L225-.L224(%r13),3
	vl	%v18,.L226-.L224(%r13),3
	stg	%r11,496(%r15)
	lgr	%r11,%r9
	msgfr	%r11,%r3
	lgr	%r3,%r9
	msgfr	%r3,%r2
	ahik	%r2,%r1,8
	stg	%r11,504(%r15)
	lgr	%r11,%r9
	stg	%r3,584(%r15)
	ahik	%r3,%r1,7
	msgfr	%r11,%r3
	lgr	%r3,%r9
	msgfr	%r3,%r2
	ahik	%r2,%r1,10
	stg	%r11,592(%r15)
	lgr	%r11,%r9
	stg	%r3,648(%r15)
	ahik	%r3,%r1,9
	msgfr	%r11,%r3
	lgr	%r3,%r9
	msgfr	%r3,%r2
	ahik	%r2,%r1,12
	stg	%r11,656(%r15)
	lgr	%r11,%r9
	stg	%r3,672(%r15)
	ahik	%r3,%r1,11
	msgfr	%r11,%r3
	lgr	%r3,%r9
	msgfr	%r3,%r2
	ahik	%r2,%r1,14
	stg	%r11,680(%r15)
	lgr	%r11,%r9
	stg	%r3,744(%r15)
	ahik	%r3,%r1,13
	msgfr	%r11,%r3
	lgr	%r3,%r9
	msgfr	%r3,%r2
	ahik	%r2,%r1,16
	stg	%r11,752(%r15)
	lgr	%r11,%r9
	stg	%r3,808(%r15)
	ahik	%r3,%r1,15
	msgfr	%r11,%r3
	lgr	%r3,%r9
	msgfr	%r3,%r2
	ahik	%r2,%r1,18
	stg	%r11,816(%r15)
	lgr	%r11,%r9
	stg	%r3,880(%r15)
	ahik	%r3,%r1,17
	msgfr	%r11,%r3
	lgr	%r3,%r9
	msgfr	%r3,%r2
	ahik	%r2,%r1,20
	stg	%r11,888(%r15)
	lgr	%r11,%r9
	stg	%r3,896(%r15)
	ahik	%r3,%r1,19
	msgfr	%r11,%r3
	lgr	%r3,%r9
	msgfr	%r3,%r2
	ahik	%r2,%r1,22
	stg	%r11,904(%r15)
	lgr	%r11,%r9
	stg	%r3,960(%r15)
	ahik	%r3,%r1,21
	msgfr	%r11,%r3
	lgr	%r3,%r9
	msgfr	%r3,%r2
	ahik	%r2,%r1,24
	stg	%r11,968(%r15)
	lgr	%r11,%r9
	stg	%r3,1032(%r15)
	ahik	%r3,%r1,23
	msgfr	%r11,%r3
	lgr	%r3,%r9
	msgfr	%r3,%r2
	ahik	%r2,%r1,26
	stg	%r11,1040(%r15)
	lgr	%r11,%r9
	stg	%r3,1056(%r15)
	ahik	%r3,%r1,25
	msgfr	%r11,%r3
	lgr	%r3,%r9
	msgfr	%r3,%r2
	ahik	%r2,%r1,28
	stg	%r11,1064(%r15)
	lgr	%r11,%r9
	stg	%r3,1120(%r15)
	ahik	%r3,%r1,27
	msgfr	%r11,%r3
	sth	%r7,1298(%r15)
	vlvgh	%v22,%r7,7
	vreph	%v22,%v22,7
	stg	%r11,1352(%r15)
	lgr	%r3,%r11
	lgr	%r11,%r9
	msgfr	%r11,%r2
	ahik	%r2,%r1,29
	mvghi	160(%r15),0
	stg	%r9,1048(%r15)
	stg	%r11,1128(%r15)
	lgr	%r11,%r9
	msgfr	%r11,%r1
	stg	%r11,432(%r15)
	lgr	%r10,%r11
	lgr	%r11,%r9
	msgfr	%r11,%r2
	stg	%r11,1416(%r15)
	lgr	%r2,%r11
	lg	%r11,360(%r15)
	aghik	%r1,%r11,1
	stg	%r1,448(%r15)
	aghik	%r1,%r11,2
	stg	%r1,464(%r15)
	aghi	%r11,3
	stg	%r11,480(%r15)
	lg	%r1,424(%r15)
	aghik	%r11,%r6,1
	stg	%r11,520(%r15)
	aghik	%r11,%r6,2
	aghi	%r6,3
	stg	%r6,552(%r15)
	aghik	%r6,%r1,1
	stg	%r6,528(%r15)
	aghik	%r6,%r1,2
	stg	%r6,544(%r15)
	aghik	%r6,%r1,3
	stg	%r6,560(%r15)
	lg	%r1,496(%r15)
	stg	%r11,536(%r15)
	aghik	%r6,%r1,1
	stg	%r6,616(%r15)
	aghik	%r6,%r1,2
	stg	%r6,632(%r15)
	aghik	%r6,%r1,3
	stg	%r6,600(%r15)
	lg	%r1,504(%r15)
	agrk	%r11,%r8,%r9
	aghik	%r6,%r1,1
	stg	%r6,624(%r15)
	aghik	%r6,%r1,2
	stg	%r6,640(%r15)
	aghik	%r6,%r1,3
	stg	%r6,608(%r15)
	lg	%r1,584(%r15)
	sllg	%r11,%r11,1
	aghik	%r6,%r1,1
	stg	%r6,688(%r15)
	aghik	%r6,%r1,2
	stg	%r6,704(%r15)
	aghik	%r6,%r1,3
	stg	%r6,720(%r15)
	lg	%r1,592(%r15)
	aghik	%r6,%r1,1
	stg	%r6,696(%r15)
	aghik	%r6,%r1,2
	stg	%r6,712(%r15)
	aghik	%r6,%r1,3
	stg	%r6,728(%r15)
	lg	%r1,648(%r15)
	aghik	%r6,%r1,1
	stg	%r6,760(%r15)
	aghik	%r6,%r1,2
	stg	%r6,776(%r15)
	aghik	%r6,%r1,3
	stg	%r6,792(%r15)
	lg	%r1,656(%r15)
	aghik	%r6,%r1,1
	stg	%r6,768(%r15)
	aghik	%r6,%r1,2
	stg	%r6,784(%r15)
	aghik	%r6,%r1,3
	stg	%r6,800(%r15)
	lg	%r1,672(%r15)
	aghik	%r6,%r1,1
	stg	%r6,824(%r15)
	aghik	%r6,%r1,2
	stg	%r6,840(%r15)
	aghik	%r6,%r1,3
	stg	%r6,856(%r15)
	lg	%r1,680(%r15)
	aghik	%r6,%r1,1
	stg	%r6,832(%r15)
	aghik	%r6,%r1,2
	stg	%r6,848(%r15)
	aghik	%r6,%r1,3
	stg	%r6,864(%r15)
	lg	%r1,744(%r15)
	aghik	%r6,%r1,1
	stg	%r6,912(%r15)
	aghik	%r6,%r1,2
	stg	%r6,928(%r15)
	aghik	%r6,%r1,3
	stg	%r6,944(%r15)
	lg	%r1,752(%r15)
	aghik	%r6,%r1,1
	stg	%r6,920(%r15)
	aghik	%r6,%r1,2
	stg	%r6,936(%r15)
	aghik	%r6,%r1,3
	stg	%r6,952(%r15)
	lg	%r1,808(%r15)
	aghik	%r6,%r1,1
	stg	%r6,976(%r15)
	aghik	%r6,%r1,2
	stg	%r6,992(%r15)
	aghik	%r6,%r1,3
	stg	%r6,1008(%r15)
	lg	%r1,816(%r15)
	aghik	%r6,%r1,1
	stg	%r6,984(%r15)
	aghik	%r6,%r1,2
	stg	%r6,1000(%r15)
	aghik	%r6,%r1,3
	stg	%r6,1016(%r15)
	lg	%r1,880(%r15)
	aghik	%r6,%r1,1
	stg	%r6,1072(%r15)
	aghik	%r6,%r1,2
	stg	%r6,1088(%r15)
	aghik	%r6,%r1,3
	stg	%r6,1104(%r15)
	lg	%r1,888(%r15)
	aghik	%r6,%r1,1
	stg	%r6,1080(%r15)
	aghik	%r6,%r1,2
	stg	%r6,1096(%r15)
	aghik	%r6,%r1,3
	stg	%r6,1112(%r15)
	lg	%r1,896(%r15)
	aghik	%r6,%r1,1
	stg	%r6,1136(%r15)
	aghik	%r6,%r1,2
	stg	%r6,1152(%r15)
	aghik	%r6,%r1,3
	stg	%r6,1168(%r15)
	lg	%r1,904(%r15)
	aghik	%r6,%r1,1
	stg	%r6,1144(%r15)
	aghik	%r6,%r1,2
	stg	%r6,1160(%r15)
	aghik	%r6,%r1,3
	stg	%r6,1176(%r15)
	lg	%r1,960(%r15)
	aghik	%r6,%r1,1
	stg	%r6,1192(%r15)
	aghik	%r6,%r1,2
	stg	%r6,1208(%r15)
	aghik	%r6,%r1,3
	stg	%r6,1224(%r15)
	lg	%r1,968(%r15)
	aghik	%r6,%r1,1
	stg	%r6,1200(%r15)
	aghik	%r6,%r1,2
	stg	%r6,1216(%r15)
	aghik	%r6,%r1,3
	stg	%r6,1232(%r15)
	lg	%r1,1032(%r15)
	aghik	%r6,%r1,1
	stg	%r6,1240(%r15)
	aghik	%r6,%r1,2
	stg	%r6,1256(%r15)
	aghik	%r6,%r1,3
	stg	%r6,1272(%r15)
	lg	%r1,1040(%r15)
	aghik	%r6,%r1,1
	stg	%r6,1248(%r15)
	aghik	%r6,%r1,2
	stg	%r6,1264(%r15)
	aghik	%r6,%r1,3
	stg	%r6,1280(%r15)
	lg	%r1,1056(%r15)
	aghik	%r6,%r1,1
	stg	%r6,1304(%r15)
	aghik	%r6,%r1,2
	stg	%r6,1320(%r15)
	aghik	%r6,%r1,3
	stg	%r6,1336(%r15)
	lg	%r1,1064(%r15)
	aghik	%r6,%r1,1
	stg	%r6,1312(%r15)
	aghik	%r6,%r1,2
	stg	%r6,1328(%r15)
	aghik	%r6,%r1,3
	stg	%r6,1344(%r15)
	lg	%r1,1120(%r15)
	aghik	%r6,%r1,1
	stg	%r6,1360(%r15)
	aghik	%r6,%r1,2
	stg	%r6,1376(%r15)
	aghik	%r6,%r1,3
	stg	%r6,1392(%r15)
	aghik	%r6,%r3,1
	stg	%r6,1368(%r15)
	lg	%r1,1128(%r15)
	aghik	%r6,%r3,2
	stg	%r6,1384(%r15)
	aghik	%r6,%r3,3
	stg	%r6,1400(%r15)
	aghik	%r6,%r1,1
	stg	%r6,1424(%r15)
	aghik	%r6,%r1,2
	stg	%r6,1440(%r15)
	aghik	%r6,%r1,3
	stg	%r6,1456(%r15)
	aghik	%r6,%r2,1
	stg	%r6,1432(%r15)
	aghik	%r6,%r2,2
	aghi	%r2,3
	stg	%r2,1464(%r15)
	aghik	%r2,%r10,1
	stg	%r2,440(%r15)
	stg	%r6,1448(%r15)
	aghik	%r2,%r10,2
	stg	%r2,456(%r15)
	ahik	%r2,%r4,1
	st	%r2,568(%r15)
	ahik	%r2,%r4,2
	st	%r2,572(%r15)
	ahik	%r2,%r4,3
	st	%r2,736(%r15)
	ahik	%r2,%r4,4
	st	%r2,740(%r15)
	ahik	%r2,%r4,5
	st	%r2,872(%r15)
	ahik	%r2,%r4,6
	st	%r2,876(%r15)
	ahik	%r2,%r4,7
	st	%r2,1024(%r15)
	ahik	%r2,%r4,8
	st	%r2,1028(%r15)
	ahik	%r2,%r4,9
	st	%r2,1184(%r15)
	lgr	%r1,%r10
	ahik	%r2,%r4,10
	st	%r2,1188(%r15)
	aghi	%r1,3
	stg	%r1,472(%r15)
	ahik	%r2,%r4,11
	st	%r2,1288(%r15)
	lr	%r1,%r4
	ahi	%r1,14
	st	%r1,1412(%r15)
	ahik	%r2,%r4,12
	st	%r2,1292(%r15)
	lg	%r1,184(%r15)
	ahik	%r2,%r4,13
	st	%r2,1408(%r15)
	ahik	%r3,%r5,-1
	agrk	%r2,%r1,%r9
	sllg	%r5,%r9,4
	stg	%r5,248(%r15)
	sgrk	%r1,%r8,%r9
	sgr	%r5,%r9
	sllg	%r4,%r9,2
	agrk	%r6,%r4,%r9
	chi	%r0,1
	risbgn	%r3,%r3,28,128+59,4
	la	%r3,16(%r3)
	locghinh	%r3,16
	stg	%r3,304(%r15)
	l	%r3,368(%r15)
	sllg	%r5,%r5,1
	lgr	%r10,%r3
	sllg	%r3,%r2,1
	stg	%r3,272(%r15)
	sllg	%r3,%r6,1
	stg	%r3,280(%r15)
	sllg	%r3,%r2,2
	sllg	%r2,%r2,3
	stg	%r2,400(%r15)
	sllg	%r2,%r1,1
	stg	%r2,392(%r15)
	sllg	%r1,%r1,2
	stg	%r1,408(%r15)
	l	%r1,1300(%r15)
	sllg	%r2,%r9,5
	stg	%r2,240(%r15)
	sll	%r1,2
	lgfr	%r1,%r1
	sllg	%r1,%r1,1
	stg	%r1,296(%r15)
	lg	%r2,176(%r15)
	lg	%r1,488(%r15)
	risbgn	%r10,%r10,28,128+55,4
	stg	%r1,168(%r15)
	stg	%r10,384(%r15)
	stg	%r10,376(%r15)
	agrk	%r1,%r2,%r9
	stg	%r1,416(%r15)
	lg	%r10,184(%r15)
	stg	%r5,184(%r15)
	stg	%r3,288(%r15)
	sllg	%r6,%r6,2
	lgr	%r3,%r2
	lgr	%r9,%r4
.L105:
	lg	%r5,208(%r15)
	cijle	%r5,1,.L136
	lg	%r0,168(%r15)
	lg	%r1,312(%r15)
	lgr	%r2,%r0
	ag	%r2,320(%r15)
	agrk	%r1,%r3,%r1
	lhi	%r4,0
	clgr	%r0,%r1
	alcr	%r4,%r4
	lg	%r1,328(%r15)
	agrk	%r1,%r3,%r1
	clgr	%r1,%r2
	lhi	%r1,0
	alcr	%r1,%r1
	or	%r1,%r4
	chi	%r5,63
	lhi	%r4,0
	lochih	%r4,1
	nrk	%r1,%r4,%r1
	je	.L97
	lg	%r4,160(%r15)
	lg	%r1,344(%r15)
	lg	%r5,352(%r15)
	agr	%r1,%r4
	ag	%r1,176(%r15)
	clgr	%r0,%r1
	lhi	%r1,0
	alcr	%r1,%r1
	agr	%r5,%r4
	lgr	%r4,%r5
	ag	%r4,176(%r15)
	clgr	%r4,%r2
	lhi	%r2,0
	alcr	%r2,%r2
	or	%r1,%r2
	je	.L97
	lg	%r1,384(%r15)
	stg	%r3,216(%r15)
	agr	%r1,%r0
	stg	%r1,192(%r15)
	stg	%r7,224(%r15)
	lgr	%r1,%r3
	lg	%r3,392(%r15)
	lg	%r2,416(%r15)
	lgr	%r4,%r0
	lg	%r7,400(%r15)
	lg	%r0,184(%r15)
	lg	%r5,408(%r15)
	stg	%r3,200(%r15)
	ag	%r2,160(%r15)
.L100:
	vzero	%v3
	vlr	%v1,%v3
	vlr	%v6,%v3
	vleb	%v1,2(%r1),0
	vleb	%v6,1(%r1),0
	vlr	%v4,%v3
	vlr	%v2,%v3
	vleb	%v4,3(%r1),0
	vleb	%v2,0(%r2),0
	vlr	%v0,%v3
	vlr	%v7,%v3
	vleb	%v0,2(%r2),0
	vleb	%v7,1(%r2),0
	vlr	%v5,%v3
	vleb	%v3,0(%r1),0
	vleb	%v5,3(%r2),0
	vleb	%v3,0(%r1,%r10),1
	vleb	%v1,2(%r1,%r10),1
	vleb	%v6,1(%r1,%r10),1
	vleb	%v4,3(%r1,%r10),1
	vleb	%v2,0(%r2,%r10),1
	vleb	%v0,2(%r2,%r10),1
	vleb	%v7,1(%r2,%r10),1
	vleb	%v5,3(%r2,%r10),1
	lg	%r3,272(%r15)
	vleb	%v3,0(%r1,%r9),2
	vleb	%v1,2(%r1,%r9),2
	vleb	%v6,1(%r1,%r9),2
	vleb	%v4,3(%r1,%r9),2
	vleb	%v2,0(%r2,%r9),2
	vleb	%v0,2(%r2,%r9),2
	vleb	%v7,1(%r2,%r9),2
	vleb	%v5,3(%r2,%r9),2
	vleb	%v3,0(%r1,%r3),3
	vleb	%v1,2(%r1,%r3),3
	vleb	%v6,1(%r1,%r3),3
	vleb	%v4,3(%r1,%r3),3
	vleb	%v2,0(%r2,%r3),3
	vleb	%v0,2(%r2,%r3),3
	vleb	%v7,1(%r2,%r3),3
	vleb	%v5,3(%r2,%r3),3
	lg	%r3,280(%r15)
	vleb	%v3,0(%r1,%r8),4
	vleb	%v1,2(%r1,%r8),4
	vleb	%v6,1(%r1,%r8),4
	vleb	%v4,3(%r1,%r8),4
	vleb	%v2,0(%r2,%r8),4
	vleb	%v0,2(%r2,%r8),4
	vleb	%v7,1(%r2,%r8),4
	vleb	%v5,3(%r2,%r8),4
	vleb	%v3,0(%r1,%r3),5
	vleb	%v1,2(%r1,%r3),5
	vleb	%v6,1(%r1,%r3),5
	vleb	%v4,3(%r1,%r3),5
	vleb	%v2,0(%r2,%r3),5
	vleb	%v0,2(%r2,%r3),5
	vleb	%v7,1(%r2,%r3),5
	vleb	%v5,3(%r2,%r3),5
	lg	%r3,288(%r15)
	pfd	2,496(%r4)
	vleb	%v3,0(%r1,%r3),6
	vleb	%v1,2(%r1,%r3),6
	vleb	%v6,1(%r1,%r3),6
	vleb	%v4,3(%r1,%r3),6
	vleb	%v2,0(%r2,%r3),6
	vleb	%v0,2(%r2,%r3),6
	vleb	%v7,1(%r2,%r3),6
	vleb	%v5,3(%r2,%r3),6
	lg	%r3,200(%r15)
	vleb	%v3,0(%r1,%r3),7
	vleb	%v1,2(%r1,%r3),7
	vleb	%v6,1(%r1,%r3),7
	vleb	%v4,3(%r1,%r3),7
	vleb	%v2,0(%r2,%r3),7
	vleb	%v0,2(%r2,%r3),7
	vleb	%v7,1(%r2,%r3),7
	vleb	%v5,3(%r2,%r3),7
	lg	%r3,248(%r15)
	vleb	%v3,0(%r1,%r3),8
	vleb	%v1,2(%r1,%r3),8
	vleb	%v6,1(%r1,%r3),8
	vleb	%v4,3(%r1,%r3),8
	vleb	%v2,0(%r2,%r3),8
	vleb	%v0,2(%r2,%r3),8
	vleb	%v7,1(%r2,%r3),8
	vleb	%v5,3(%r2,%r3),8
	vleb	%v3,0(%r1,%r11),9
	vleb	%v1,2(%r1,%r11),9
	vleb	%v6,1(%r1,%r11),9
	vleb	%v4,3(%r1,%r11),9
	vleb	%v2,0(%r2,%r11),9
	vleb	%v0,2(%r2,%r11),9
	vleb	%v7,1(%r2,%r11),9
	vleb	%v5,3(%r2,%r11),9
	lg	%r3,256(%r15)
	vleb	%v3,0(%r1,%r6),10
	vleb	%v1,2(%r1,%r6),10
	vleb	%v6,1(%r1,%r6),10
	vleb	%v4,3(%r1,%r6),10
	vleb	%v2,0(%r2,%r6),10
	vleb	%v0,2(%r2,%r6),10
	vleb	%v7,1(%r2,%r6),10
	vleb	%v5,3(%r2,%r6),10
	vleb	%v3,0(%r1,%r3),11
	vleb	%v1,2(%r1,%r3),11
	vleb	%v6,1(%r1,%r3),11
	vleb	%v4,3(%r1,%r3),11
	vleb	%v2,0(%r2,%r3),11
	vleb	%v0,2(%r2,%r3),11
	vleb	%v7,1(%r2,%r3),11
	vleb	%v5,3(%r2,%r3),11
	lg	%r3,264(%r15)
	vleb	%v3,0(%r1,%r7),12
	vleb	%v1,2(%r1,%r7),12
	vleb	%v6,1(%r1,%r7),12
	vleb	%v4,3(%r1,%r7),12
	vleb	%v2,0(%r2,%r7),12
	vleb	%v0,2(%r2,%r7),12
	vleb	%v7,1(%r2,%r7),12
	vleb	%v5,3(%r2,%r7),12
	vleb	%v3,0(%r1,%r3),13
	vleb	%v1,2(%r1,%r3),13
	vleb	%v6,1(%r1,%r3),13
	vleb	%v4,3(%r1,%r3),13
	vleb	%v2,0(%r2,%r3),13
	vleb	%v0,2(%r2,%r3),13
	vleb	%v7,1(%r2,%r3),13
	vleb	%v5,3(%r2,%r3),13
	lgr	%r3,%r0
	vleb	%v3,0(%r1,%r5),14
	vleb	%v1,2(%r1,%r5),14
	vleb	%v6,1(%r1,%r5),14
	vleb	%v4,3(%r1,%r5),14
	vleb	%v2,0(%r2,%r5),14
	vleb	%v0,2(%r2,%r5),14
	vleb	%v7,1(%r2,%r5),14
	vleb	%v5,3(%r2,%r5),14
	vleb	%v3,0(%r1,%r3),15
	vleb	%v1,2(%r1,%r3),15
	vleb	%v6,1(%r1,%r3),15
	vleb	%v4,3(%r1,%r3),15
	vleb	%v2,0(%r2,%r3),15
	vleb	%v0,2(%r2,%r3),15
	vleb	%v7,1(%r2,%r3),15
	vleb	%v5,3(%r2,%r3),15
	vuplhb	%v21,%v3
	vuplhb	%v8,%v1
	vuplhb	%v28,%v6
	vuplhb	%v26,%v4
	vuplhb	%v19,%v2
	vuplhb	%v23,%v0
	vuplhb	%v16,%v7
	vuplhb	%v17,%v5
	vupllb	%v3,%v3
	vupllb	%v1,%v1
	vupllb	%v6,%v6
	vupllb	%v4,%v4
	vupllb	%v2,%v2
	vupllb	%v0,%v0
	vupllb	%v7,%v7
	vupllb	%v5,%v5
	vah	%v30,%v21,%v22
	vah	%v3,%v3,%v22
	vah	%v21,%v8,%v22
	vah	%v28,%v28,%v22
	vah	%v6,%v6,%v22
	vah	%v2,%v2,%v22
	vah	%v23,%v23,%v22
	vah	%v16,%v16,%v22
	vah	%v7,%v7,%v22
	vah	%v1,%v1,%v22
	vah	%v26,%v26,%v22
	vah	%v4,%v4,%v22
	vah	%v19,%v19,%v22
	vah	%v0,%v0,%v22
	vah	%v17,%v17,%v22
	vah	%v5,%v5,%v22
	vperm	%v25,%v30,%v21,%v20
	vperm	%v31,%v28,%v26,%v20
	vperm	%v24,%v16,%v17,%v20
	vperm	%v26,%v28,%v26,%v18
	vperm	%v17,%v16,%v17,%v18
	vperm	%v28,%v7,%v5,%v20
	vperm	%v16,%v6,%v4,%v20
	vperm	%v29,%v3,%v1,%v20
	vperm	%v5,%v7,%v5,%v18
	vperm	%v1,%v3,%v1,%v18
	vperm	%v21,%v30,%v21,%v18
	vperm	%v3,%v2,%v0,%v20
	vperm	%v30,%v19,%v23,%v20
	vperm	%v4,%v6,%v4,%v18
	vperm	%v19,%v19,%v23,%v18
	vperm	%v0,%v2,%v0,%v18
	vperm	%v6,%v25,%v31,%v20
	vperm	%v2,%v30,%v24,%v20
	vperm	%v23,%v21,%v26,%v20
	vperm	%v27,%v19,%v17,%v20
	vperm	%v31,%v25,%v31,%v18
	vperm	%v24,%v30,%v24,%v18
	vperm	%v25,%v19,%v17,%v18
	vperm	%v30,%v3,%v28,%v20
	vperm	%v19,%v29,%v16,%v20
	vperm	%v17,%v1,%v4,%v20
	vperm	%v29,%v29,%v16,%v18
	vperm	%v21,%v21,%v26,%v18
	vperm	%v16,%v3,%v28,%v18
	vperm	%v4,%v1,%v4,%v18
	vperm	%v28,%v0,%v5,%v20
	vperm	%v0,%v0,%v5,%v18
	vperm	%v8,%v6,%v2,%v20
	vperm	%v10,%v31,%v24,%v20
	vst	%v8,0(%r4)
	vperm	%v6,%v6,%v2,%v18
	vst	%v6,16(%r4)
	vperm	%v2,%v23,%v27,%v20
	vperm	%v26,%v21,%v25,%v20
	vperm	%v7,%v19,%v30,%v20
	vperm	%v5,%v29,%v16,%v20
	vperm	%v3,%v17,%v28,%v20
	vperm	%v1,%v4,%v0,%v20
	vperm	%v24,%v31,%v24,%v18
	vperm	%v23,%v23,%v27,%v18
	vperm	%v21,%v21,%v25,%v18
	vperm	%v19,%v19,%v30,%v18
	vperm	%v16,%v29,%v16,%v18
	vperm	%v17,%v17,%v28,%v18
	vperm	%v0,%v4,%v0,%v18
	lg	%r3,240(%r15)
	vst	%v10,32(%r4)
	agr	%r1,%r3
	agr	%r2,%r3
	vst	%v24,48(%r4)
	vst	%v2,64(%r4)
	vst	%v23,80(%r4)
	vst	%v26,96(%r4)
	vst	%v21,112(%r4)
	vst	%v7,128(%r4)
	vst	%v19,144(%r4)
	vst	%v5,160(%r4)
	vst	%v16,176(%r4)
	vst	%v3,192(%r4)
	vst	%v17,208(%r4)
	vst	%v1,224(%r4)
	vst	%v0,240(%r4)
	lg	%r3,192(%r15)
	aghi	%r4,256
	cgrjnlh	%r4,%r3,.L227
	j	.L100
.L227:
	lg	%r1,168(%r15)
	l	%r2,368(%r15)
	l	%r4,372(%r15)
	stg	%r0,184(%r15)
	lg	%r3,216(%r15)
	lg	%r7,224(%r15)
	ag	%r1,376(%r15)
	crje	%r2,%r4,.L102
	lg	%r2,432(%r15)
	l	%r4,340(%r15)
	llc	%r2,0(%r3,%r2)
	ar	%r2,%r7
	sth	%r2,0(%r1)
	lg	%r2,360(%r15)
	llc	%r2,0(%r3,%r2)
	ar	%r2,%r7
	sth	%r2,2(%r1)
	lg	%r2,440(%r15)
	llc	%r2,0(%r3,%r2)
	ar	%r2,%r7
	sth	%r2,4(%r1)
	lg	%r2,448(%r15)
	llc	%r2,0(%r3,%r2)
	ar	%r2,%r7
	sth	%r2,6(%r1)
	lg	%r2,456(%r15)
	llc	%r2,0(%r3,%r2)
	ar	%r2,%r7
	sth	%r2,8(%r1)
	lg	%r2,464(%r15)
	llc	%r2,0(%r3,%r2)
	ar	%r2,%r7
	sth	%r2,10(%r1)
	lg	%r2,472(%r15)
	llc	%r2,0(%r3,%r2)
	ar	%r2,%r7
	sth	%r2,12(%r1)
	lg	%r2,480(%r15)
	llc	%r2,0(%r3,%r2)
	ar	%r2,%r7
	sth	%r2,14(%r1)
	l	%r2,568(%r15)
	crjle	%r4,%r2,.L102
	lg	%r2,512(%r15)
	llc	%r2,0(%r3,%r2)
	ar	%r2,%r7
	sth	%r2,16(%r1)
	lg	%r2,424(%r15)
	llc	%r2,0(%r3,%r2)
	ar	%r2,%r7
	sth	%r2,18(%r1)
	lg	%r2,520(%r15)
	llc	%r2,0(%r3,%r2)
	ar	%r2,%r7
	sth	%r2,20(%r1)
	lg	%r2,528(%r15)
	llc	%r2,0(%r3,%r2)
	ar	%r2,%r7
	sth	%r2,22(%r1)
	lg	%r2,536(%r15)
	llc	%r2,0(%r3,%r2)
	ar	%r2,%r7
	sth	%r2,24(%r1)
	lg	%r2,544(%r15)
	llc	%r2,0(%r3,%r2)
	ar	%r2,%r7
	sth	%r2,26(%r1)
	lg	%r2,552(%r15)
	llc	%r2,0(%r3,%r2)
	ar	%r2,%r7
	sth	%r2,28(%r1)
	lg	%r2,560(%r15)
	llc	%r2,0(%r3,%r2)
	ar	%r2,%r7
	sth	%r2,30(%r1)
	l	%r2,572(%r15)
	crjle	%r4,%r2,.L102
	lg	%r2,496(%r15)
	llc	%r2,0(%r3,%r2)
	ar	%r2,%r7
	sth	%r2,32(%r1)
	lg	%r2,504(%r15)
	llc	%r2,0(%r3,%r2)
	ar	%r2,%r7
	sth	%r2,34(%r1)
	lg	%r2,616(%r15)
	llc	%r2,0(%r3,%r2)
	ar	%r2,%r7
	sth	%r2,36(%r1)
	lg	%r2,624(%r15)
	llc	%r2,0(%r3,%r2)
	ar	%r2,%r7
	sth	%r2,38(%r1)
	lg	%r2,632(%r15)
	llc	%r2,0(%r3,%r2)
	ar	%r2,%r7
	sth	%r2,40(%r1)
	lg	%r2,640(%r15)
	llc	%r2,0(%r3,%r2)
	ar	%r2,%r7
	sth	%r2,42(%r1)
	lg	%r2,600(%r15)
	llc	%r2,0(%r3,%r2)
	ar	%r2,%r7
	sth	%r2,44(%r1)
	lg	%r2,608(%r15)
	llc	%r2,0(%r3,%r2)
	ar	%r2,%r7
	sth	%r2,46(%r1)
	l	%r2,736(%r15)
	crjle	%r4,%r2,.L102
	lg	%r2,584(%r15)
	llc	%r2,0(%r3,%r2)
	ar	%r2,%r7
	sth	%r2,48(%r1)
	lg	%r2,592(%r15)
	llc	%r2,0(%r3,%r2)
	ar	%r2,%r7
	sth	%r2,50(%r1)
	lg	%r2,688(%r15)
	llc	%r2,0(%r3,%r2)
	ar	%r2,%r7
	sth	%r2,52(%r1)
	lg	%r2,696(%r15)
	llc	%r2,0(%r3,%r2)
	ar	%r2,%r7
	sth	%r2,54(%r1)
	lg	%r2,704(%r15)
	llc	%r2,0(%r3,%r2)
	ar	%r2,%r7
	sth	%r2,56(%r1)
	lg	%r2,712(%r15)
	llc	%r2,0(%r3,%r2)
	ar	%r2,%r7
	sth	%r2,58(%r1)
	lg	%r2,720(%r15)
	llc	%r2,0(%r3,%r2)
	ar	%r2,%r7
	sth	%r2,60(%r1)
	lg	%r2,728(%r15)
	llc	%r2,0(%r3,%r2)
	ar	%r2,%r7
	sth	%r2,62(%r1)
	l	%r2,740(%r15)
	crjle	%r4,%r2,.L102
	lg	%r2,648(%r15)
	llc	%r2,0(%r3,%r2)
	ar	%r2,%r7
	sth	%r2,64(%r1)
	lg	%r2,656(%r15)
	llc	%r2,0(%r3,%r2)
	ar	%r2,%r7
	sth	%r2,66(%r1)
	lg	%r2,760(%r15)
	llc	%r2,0(%r3,%r2)
	ar	%r2,%r7
	sth	%r2,68(%r1)
	lg	%r2,768(%r15)
	llc	%r2,0(%r3,%r2)
	ar	%r2,%r7
	sth	%r2,70(%r1)
	lg	%r2,776(%r15)
	llc	%r2,0(%r3,%r2)
	ar	%r2,%r7
	sth	%r2,72(%r1)
	lg	%r2,784(%r15)
	llc	%r2,0(%r3,%r2)
	ar	%r2,%r7
	sth	%r2,74(%r1)
	lg	%r2,792(%r15)
	llc	%r2,0(%r3,%r2)
	ar	%r2,%r7
	sth	%r2,76(%r1)
	lg	%r2,800(%r15)
	llc	%r2,0(%r3,%r2)
	ar	%r2,%r7
	sth	%r2,78(%r1)
	l	%r2,872(%r15)
	crjle	%r4,%r2,.L102
	lg	%r2,672(%r15)
	llc	%r2,0(%r3,%r2)
	ar	%r2,%r7
	sth	%r2,80(%r1)
	lg	%r2,680(%r15)
	llc	%r2,0(%r3,%r2)
	ar	%r2,%r7
	sth	%r2,82(%r1)
	lg	%r2,824(%r15)
	llc	%r2,0(%r3,%r2)
	ar	%r2,%r7
	sth	%r2,84(%r1)
	lg	%r2,832(%r15)
	llc	%r2,0(%r3,%r2)
	ar	%r2,%r7
	sth	%r2,86(%r1)
	lg	%r2,840(%r15)
	llc	%r2,0(%r3,%r2)
	ar	%r2,%r7
	sth	%r2,88(%r1)
	lg	%r2,848(%r15)
	llc	%r2,0(%r3,%r2)
	ar	%r2,%r7
	sth	%r2,90(%r1)
	lg	%r2,856(%r15)
	llc	%r2,0(%r3,%r2)
	ar	%r2,%r7
	sth	%r2,92(%r1)
	lg	%r2,864(%r15)
	llc	%r2,0(%r3,%r2)
	ar	%r2,%r7
	sth	%r2,94(%r1)
	l	%r2,876(%r15)
	crjle	%r4,%r2,.L102
	lg	%r2,744(%r15)
	llc	%r2,0(%r3,%r2)
	ar	%r2,%r7
	sth	%r2,96(%r1)
	lg	%r2,752(%r15)
	llc	%r2,0(%r3,%r2)
	ar	%r2,%r7
	sth	%r2,98(%r1)
	lg	%r2,912(%r15)
	llc	%r2,0(%r3,%r2)
	ar	%r2,%r7
	sth	%r2,100(%r1)
	lg	%r2,920(%r15)
	llc	%r2,0(%r3,%r2)
	ar	%r2,%r7
	sth	%r2,102(%r1)
	lg	%r2,928(%r15)
	llc	%r2,0(%r3,%r2)
	ar	%r2,%r7
	sth	%r2,104(%r1)
	lg	%r2,936(%r15)
	llc	%r2,0(%r3,%r2)
	ar	%r2,%r7
	sth	%r2,106(%r1)
	lg	%r2,944(%r15)
	llc	%r2,0(%r3,%r2)
	ar	%r2,%r7
	sth	%r2,108(%r1)
	lg	%r2,952(%r15)
	llc	%r2,0(%r3,%r2)
	ar	%r2,%r7
	sth	%r2,110(%r1)
	l	%r2,1024(%r15)
	crjle	%r4,%r2,.L102
	lg	%r2,808(%r15)
	llc	%r2,0(%r3,%r2)
	ar	%r2,%r7
	sth	%r2,112(%r1)
	lg	%r2,816(%r15)
	llc	%r2,0(%r3,%r2)
	ar	%r2,%r7
	sth	%r2,114(%r1)
	lg	%r2,976(%r15)
	llc	%r2,0(%r3,%r2)
	ar	%r2,%r7
	sth	%r2,116(%r1)
	lg	%r2,984(%r15)
	llc	%r2,0(%r3,%r2)
	ar	%r2,%r7
	sth	%r2,118(%r1)
	lg	%r2,992(%r15)
	llc	%r2,0(%r3,%r2)
	ar	%r2,%r7
	sth	%r2,120(%r1)
	lg	%r2,1000(%r15)
	llc	%r2,0(%r3,%r2)
	ar	%r2,%r7
	sth	%r2,122(%r1)
	lg	%r2,1008(%r15)
	llc	%r2,0(%r3,%r2)
	ar	%r2,%r7
	sth	%r2,124(%r1)
	lg	%r2,1016(%r15)
	llc	%r2,0(%r3,%r2)
	ar	%r2,%r7
	sth	%r2,126(%r1)
	l	%r2,1028(%r15)
	crjle	%r4,%r2,.L102
	lg	%r2,880(%r15)
	llc	%r2,0(%r3,%r2)
	ar	%r2,%r7
	sth	%r2,128(%r1)
	lg	%r2,888(%r15)
	llc	%r2,0(%r3,%r2)
	ar	%r2,%r7
	sth	%r2,130(%r1)
	lg	%r2,1072(%r15)
	llc	%r2,0(%r3,%r2)
	ar	%r2,%r7
	sth	%r2,132(%r1)
	lg	%r2,1080(%r15)
	llc	%r2,0(%r3,%r2)
	ar	%r2,%r7
	sth	%r2,134(%r1)
	lg	%r2,1088(%r15)
	llc	%r2,0(%r3,%r2)
	ar	%r2,%r7
	sth	%r2,136(%r1)
	lg	%r2,1096(%r15)
	llc	%r2,0(%r3,%r2)
	ar	%r2,%r7
	sth	%r2,138(%r1)
	lg	%r2,1104(%r15)
	llc	%r2,0(%r3,%r2)
	ar	%r2,%r7
	sth	%r2,140(%r1)
	lg	%r2,1112(%r15)
	llc	%r2,0(%r3,%r2)
	ar	%r2,%r7
	sth	%r2,142(%r1)
	l	%r2,1184(%r15)
	crjle	%r4,%r2,.L102
	lg	%r2,896(%r15)
	llc	%r2,0(%r3,%r2)
	ar	%r2,%r7
	sth	%r2,144(%r1)
	lg	%r2,904(%r15)
	llc	%r2,0(%r3,%r2)
	ar	%r2,%r7
	sth	%r2,146(%r1)
	lg	%r2,1136(%r15)
	llc	%r2,0(%r3,%r2)
	ar	%r2,%r7
	sth	%r2,148(%r1)
	lg	%r2,1144(%r15)
	llc	%r2,0(%r3,%r2)
	ar	%r2,%r7
	sth	%r2,150(%r1)
	lg	%r2,1152(%r15)
	llc	%r2,0(%r3,%r2)
	ar	%r2,%r7
	sth	%r2,152(%r1)
	lg	%r2,1160(%r15)
	llc	%r2,0(%r3,%r2)
	ar	%r2,%r7
	sth	%r2,154(%r1)
	lg	%r2,1168(%r15)
	llc	%r2,0(%r3,%r2)
	ar	%r2,%r7
	sth	%r2,156(%r1)
	lg	%r2,1176(%r15)
	llc	%r2,0(%r3,%r2)
	ar	%r2,%r7
	sth	%r2,158(%r1)
	l	%r2,1188(%r15)
	crjle	%r4,%r2,.L102
	lg	%r2,960(%r15)
	llc	%r2,0(%r3,%r2)
	ar	%r2,%r7
	sth	%r2,160(%r1)
	lg	%r2,968(%r15)
	llc	%r2,0(%r3,%r2)
	ar	%r2,%r7
	sth	%r2,162(%r1)
	lg	%r2,1192(%r15)
	llc	%r2,0(%r3,%r2)
	ar	%r2,%r7
	sth	%r2,164(%r1)
	lg	%r2,1200(%r15)
	llc	%r2,0(%r3,%r2)
	ar	%r2,%r7
	sth	%r2,166(%r1)
	lg	%r2,1208(%r15)
	llc	%r2,0(%r3,%r2)
	ar	%r2,%r7
	sth	%r2,168(%r1)
	lg	%r2,1216(%r15)
	llc	%r2,0(%r3,%r2)
	ar	%r2,%r7
	sth	%r2,170(%r1)
	lg	%r2,1224(%r15)
	llc	%r2,0(%r3,%r2)
	ar	%r2,%r7
	sth	%r2,172(%r1)
	lg	%r2,1232(%r15)
	llc	%r2,0(%r3,%r2)
	ar	%r2,%r7
	sth	%r2,174(%r1)
	l	%r2,1288(%r15)
	crjle	%r4,%r2,.L102
	lg	%r2,1032(%r15)
	llc	%r2,0(%r3,%r2)
	ar	%r2,%r7
	sth	%r2,176(%r1)
	lg	%r2,1040(%r15)
	llc	%r2,0(%r3,%r2)
	ar	%r2,%r7
	sth	%r2,178(%r1)
	lg	%r2,1240(%r15)
	llc	%r2,0(%r3,%r2)
	ar	%r2,%r7
	sth	%r2,180(%r1)
	lg	%r2,1248(%r15)
	llc	%r2,0(%r3,%r2)
	ar	%r2,%r7
	sth	%r2,182(%r1)
	lg	%r2,1256(%r15)
	llc	%r2,0(%r3,%r2)
	ar	%r2,%r7
	sth	%r2,184(%r1)
	lg	%r2,1264(%r15)
	llc	%r2,0(%r3,%r2)
	ar	%r2,%r7
	sth	%r2,186(%r1)
	lg	%r2,1272(%r15)
	llc	%r2,0(%r3,%r2)
	ar	%r2,%r7
	sth	%r2,188(%r1)
	lg	%r2,1280(%r15)
	llc	%r2,0(%r3,%r2)
	ar	%r2,%r7
	sth	%r2,190(%r1)
	l	%r2,1292(%r15)
	crjle	%r4,%r2,.L102
	lg	%r2,1056(%r15)
	llc	%r2,0(%r3,%r2)
	ar	%r2,%r7
	sth	%r2,192(%r1)
	lg	%r2,1064(%r15)
	llc	%r2,0(%r3,%r2)
	ar	%r2,%r7
	sth	%r2,194(%r1)
	lg	%r2,1304(%r15)
	llc	%r2,0(%r3,%r2)
	ar	%r2,%r7
	sth	%r2,196(%r1)
	lg	%r2,1312(%r15)
	llc	%r2,0(%r3,%r2)
	ar	%r2,%r7
	sth	%r2,198(%r1)
	lg	%r2,1320(%r15)
	llc	%r2,0(%r3,%r2)
	ar	%r2,%r7
	sth	%r2,200(%r1)
	lg	%r2,1328(%r15)
	llc	%r2,0(%r3,%r2)
	ar	%r2,%r7
	sth	%r2,202(%r1)
	lg	%r2,1336(%r15)
	llc	%r2,0(%r3,%r2)
	ar	%r2,%r7
	sth	%r2,204(%r1)
	lg	%r2,1344(%r15)
	llc	%r2,0(%r3,%r2)
	ar	%r2,%r7
	sth	%r2,206(%r1)
	l	%r2,1408(%r15)
	crjle	%r4,%r2,.L102
	lg	%r2,1120(%r15)
	llc	%r2,0(%r3,%r2)
	ar	%r2,%r7
	sth	%r2,208(%r1)
	lg	%r2,1352(%r15)
	llc	%r2,0(%r3,%r2)
	ar	%r2,%r7
	sth	%r2,210(%r1)
	lg	%r2,1360(%r15)
	llc	%r2,0(%r3,%r2)
	ar	%r2,%r7
	sth	%r2,212(%r1)
	lg	%r2,1368(%r15)
	llc	%r2,0(%r3,%r2)
	ar	%r2,%r7
	sth	%r2,214(%r1)
	lg	%r2,1376(%r15)
	llc	%r2,0(%r3,%r2)
	ar	%r2,%r7
	sth	%r2,216(%r1)
	lg	%r2,1384(%r15)
	llc	%r2,0(%r3,%r2)
	ar	%r2,%r7
	sth	%r2,218(%r1)
	lg	%r2,1392(%r15)
	llc	%r2,0(%r3,%r2)
	ar	%r2,%r7
	sth	%r2,220(%r1)
	lg	%r2,1400(%r15)
	llc	%r2,0(%r3,%r2)
	ar	%r2,%r7
	sth	%r2,222(%r1)
	l	%r2,1412(%r15)
	crjle	%r4,%r2,.L102
	lg	%r2,1128(%r15)
	llc	%r2,0(%r3,%r2)
	ar	%r2,%r7
	sth	%r2,224(%r1)
	lg	%r2,1416(%r15)
	llc	%r2,0(%r3,%r2)
	ar	%r2,%r7
	sth	%r2,226(%r1)
	lg	%r2,1424(%r15)
	llc	%r2,0(%r3,%r2)
	ar	%r2,%r7
	sth	%r2,228(%r1)
	lg	%r2,1432(%r15)
	llc	%r2,0(%r3,%r2)
	ar	%r2,%r7
	sth	%r2,230(%r1)
	lg	%r2,1440(%r15)
	llc	%r2,0(%r3,%r2)
	ar	%r2,%r7
	sth	%r2,232(%r1)
	lg	%r2,1448(%r15)
	llc	%r2,0(%r3,%r2)
	ar	%r2,%r7
	sth	%r2,234(%r1)
	lg	%r2,1456(%r15)
	llc	%r2,0(%r3,%r2)
	ar	%r2,%r7
	sth	%r2,236(%r1)
	lg	%r2,1464(%r15)
	llc	%r2,0(%r3,%r2)
	ar	%r2,%r7
	sth	%r2,238(%r1)
.L102:
	lg	%r1,168(%r15)
	ag	%r1,304(%r15)
.L96:
	l	%r2,336(%r15)
	cije	%r2,0,.L104
	lg	%r4,664(%r15)
	llc	%r2,0(%r3,%r4)
	sth	%r7,2(%r1)
	ar	%r2,%r7
	sth	%r2,0(%r1)
	llc	%r2,1(%r3,%r4)
	sth	%r7,6(%r1)
	ar	%r2,%r7
	sth	%r2,4(%r1)
	llc	%r2,2(%r3,%r4)
	sth	%r7,10(%r1)
	ar	%r2,%r7
	sth	%r2,8(%r1)
	llc	%r2,3(%r3,%r4)
	sth	%r7,14(%r1)
	ar	%r2,%r7
	sth	%r2,12(%r1)
.L104:
	lg	%r1,168(%r15)
	agsi	160(%r15),4
	ag	%r1,296(%r15)
	stg	%r1,168(%r15)
	l	%r2,164(%r15)
	l	%r1,232(%r15)
	aghi	%r3,4
	crjh	%r1,%r2,.L105
	ahi	%r1,-1
	risbgn	%r1,%r1,64-30,128+63,32+30
	aghi	%r1,1
	msg	%r1,296(%r15)
	lg	%r9,1048(%r15)
	ag	%r1,488(%r15)
	stg	%r1,488(%r15)
.L95:
	l	%r1,232(%r15)
	lg	%r8,176(%r15)
	lgfr	%r0,%r1
	agfr	%r8,%r1
	lg	%r1,576(%r15)
	tmll	%r1,1
	jne	.L218
	lg	%r1,576(%r15)
	tmll	%r1,2
	jne	.L219
.L93:
	ld	%f8,1472(%r15)
	ld	%f10,1480(%r15)
	lmg	%r6,%r15,1536(%r15)
	.cfi_remember_state
	.cfi_restore 15
	.cfi_restore 14
	.cfi_restore 13
	.cfi_restore 12
	.cfi_restore 11
	.cfi_restore 10
	.cfi_restore 9
	.cfi_restore 8
	.cfi_restore 7
	.cfi_restore 6
	.cfi_restore 25
	.cfi_restore 24
	.cfi_def_cfa_offset 160
	br	%r14
.L97:
	.cfi_restore_state
	lg	%r2,176(%r15)
	stg	%r8,216(%r15)
	ag	%r2,160(%r15)
	lt	%r1,340(%r15)
	st	%r1,192(%r15)
	lhi	%r1,1
	stocnh	%r1,192(%r15)
	lg	%r4,1048(%r15)
	lg	%r1,168(%r15)
	lg	%r5,184(%r15)
	l	%r8,192(%r15)
	stg	%r9,200(%r15)
	lh	%r0,1298(%r15)
.L103:
	llc	%r9,0(%r2)
	la	%r1,16(%r1)
	ar	%r9,%r0
	sthy	%r9,-16(%r1)
	llc	%r9,0(%r2,%r4)
	ar	%r9,%r0
	sthy	%r9,-14(%r1)
	llc	%r9,1(%r2)
	ar	%r9,%r0
	sthy	%r9,-12(%r1)
	llc	%r9,1(%r2,%r4)
	ar	%r9,%r0
	sthy	%r9,-10(%r1)
	llc	%r9,2(%r2)
	ar	%r9,%r0
	sthy	%r9,-8(%r1)
	llc	%r9,2(%r2,%r4)
	ar	%r9,%r0
	sthy	%r9,-6(%r1)
	llc	%r9,3(%r2)
	ar	%r9,%r0
	sthy	%r9,-4(%r1)
	llc	%r9,3(%r2,%r4)
	agr	%r2,%r10
	ar	%r9,%r0
	sthy	%r9,-2(%r1)
	brct	%r8,.L103
	lg	%r9,200(%r15)
	lg	%r8,216(%r15)
	stg	%r5,184(%r15)
	j	.L102
.L136:
	lg	%r1,168(%r15)
	j	.L96
.L218:
	l	%r1,212(%r15)
	cijh	%r1,1,.L220
	lg	%r2,208(%r15)
	lg	%r1,488(%r15)
	la	%r0,1(%r8)
	tmll	%r2,1
	jne	.L221
.L124:
	lgf	%r1,1300(%r15)
	sllg	%r1,%r1,1
	ag	%r1,488(%r15)
	stg	%r1,488(%r15)
	lg	%r1,576(%r15)
	lgr	%r8,%r0
	tmll	%r1,2
	je	.L93
.L219:
	lg	%r11,208(%r15)
	lr	%r1,%r11
	srl	%r1,31
	ar	%r1,%r11
	srak	%r10,%r1,1
	st	%r10,240(%r15)
	cijle	%r11,1,.L127
	llgfr	%r1,%r10
	aghi	%r1,-1
	chi	%r11,1
	lgr	%r2,%r1
	locghinh	%r2,0
	msgr	%r2,%r9
	lg	%r6,488(%r15)
	sllg	%r1,%r1,3
	lr	%r3,%r7
	sllg	%r2,%r2,1
	aghik	%r4,%r2,1
	ltgr	%r9,%r9
	locghinhe	%r4,1
	aghi	%r1,7
	chi	%r11,1
	locghinh	%r1,7
	agr	%r1,%r6
	ltgr	%r9,%r9
	locghinl	%r2,0
	agrk	%r5,%r9,%r4
	agr	%r5,%r8
	clgr	%r6,%r5
	lhi	%r5,0
	alcr	%r5,%r5
	agrk	%r0,%r9,%r2
	agr	%r0,%r8
	clgr	%r0,%r1
	lhi	%r0,0
	alcr	%r0,%r0
	agr	%r4,%r8
	clgr	%r6,%r4
	lhi	%r4,0
	alcr	%r4,%r4
	agr	%r2,%r8
	clgr	%r2,%r1
	lhi	%r1,0
	alcr	%r1,%r1
	or	%r5,%r0
	or	%r4,%r1
	nrk	%r1,%r5,%r4
	je	.L128
	cijle	%r11,63,.L128
	chi	%r11,1
	lochinh	%r10,1
	st	%r10,248(%r15)
	lgr	%r1,%r10
	risbgn	%r1,%r1,29,128+56,3
	agr	%r1,%r6
	stg	%r1,168(%r15)
	sllg	%r0,%r9,1
	sllg	%r10,%r9,2
	sllg	%r11,%r9,3
	agrk	%r3,%r10,%r0
	agrk	%r1,%r11,%r0
	stg	%r1,176(%r15)
	sllg	%r4,%r3,1
	stg	%r4,184(%r15)
	sllg	%r1,%r1,1
	stg	%r1,216(%r15)
	sllg	%r2,%r3,2
	sllg	%r1,%r9,4
	sgrk	%r4,%r2,%r0
	stg	%r4,224(%r15)
	sgrk	%r5,%r1,%r0
	stg	%r5,192(%r15)
	agrk	%r4,%r2,%r0
	stg	%r4,256(%r15)
	agrk	%r5,%r1,%r0
	stg	%r5,200(%r15)
	stg	%r8,280(%r15)
	stg	%r9,288(%r15)
	stg	%r7,296(%r15)
	sllg	%r4,%r9,5
	stg	%r4,160(%r15)
	sgrk	%r5,%r1,%r0
	sgr	%r4,%r0
	stg	%r4,272(%r15)
	sllg	%r5,%r5,1
	stg	%r5,264(%r15)
	vl	%v7,.L225-.L224(%r13),3
	vl	%v5,.L226-.L224(%r13),3
	vlvgh	%v1,%r7,7
	vreph	%v1,%v1,7
	agrk	%r4,%r8,%r9
	lgr	%r5,%r8
	lgr	%r9,%r0
	lg	%r8,256(%r15)
	lg	%r7,264(%r15)
	lg	%r0,272(%r15)
	stg	%r1,232(%r15)
.L131:
	vzero	%v0
	vlr	%v6,%v0
	vlr	%v2,%v0
	vleb	%v6,1(%r5),0
	vleb	%v2,0(%r4),0
	vlr	%v4,%v0
	vleb	%v0,0(%r5),0
	vleb	%v4,1(%r4),0
	vleb	%v0,0(%r5,%r9),1
	vleb	%v6,1(%r5,%r9),1
	vleb	%v2,0(%r4,%r9),1
	vleb	%v4,1(%r4,%r9),1
	vleb	%v0,0(%r5,%r10),2
	vleb	%v6,1(%r5,%r10),2
	vleb	%v2,0(%r4,%r10),2
	vleb	%v4,1(%r4,%r10),2
	vleb	%v0,0(%r5,%r3),3
	vleb	%v6,1(%r5,%r3),3
	vleb	%v2,0(%r4,%r3),3
	vleb	%v4,1(%r4,%r3),3
	lg	%r1,176(%r15)
	vleb	%v0,0(%r5,%r11),4
	vleb	%v6,1(%r5,%r11),4
	vleb	%v2,0(%r4,%r11),4
	vleb	%v4,1(%r4,%r11),4
	vleb	%v0,0(%r5,%r1),5
	vleb	%v6,1(%r5,%r1),5
	vleb	%v2,0(%r4,%r1),5
	vleb	%v4,1(%r4,%r1),5
	lg	%r1,184(%r15)
	vleb	%v0,0(%r5,%r1),6
	vleb	%v6,1(%r5,%r1),6
	vleb	%v2,0(%r4,%r1),6
	vleb	%v4,1(%r4,%r1),6
	lg	%r1,192(%r15)
	vleb	%v0,0(%r5,%r1),7
	vleb	%v6,1(%r5,%r1),7
	vleb	%v2,0(%r4,%r1),7
	vleb	%v4,1(%r4,%r1),7
	lg	%r1,232(%r15)
	vleb	%v0,0(%r5,%r1),8
	vleb	%v6,1(%r5,%r1),8
	vleb	%v2,0(%r4,%r1),8
	vleb	%v4,1(%r4,%r1),8
	lg	%r1,200(%r15)
	vleb	%v0,0(%r5,%r1),9
	vleb	%v6,1(%r5,%r1),9
	vleb	%v2,0(%r4,%r1),9
	vleb	%v4,1(%r4,%r1),9
	lg	%r1,216(%r15)
	vleb	%v0,0(%r5,%r1),10
	vleb	%v6,1(%r5,%r1),10
	vleb	%v2,0(%r4,%r1),10
	vleb	%v4,1(%r4,%r1),10
	lg	%r1,224(%r15)
	vleb	%v0,0(%r5,%r1),11
	vleb	%v6,1(%r5,%r1),11
	vleb	%v2,0(%r4,%r1),11
	vleb	%v4,1(%r4,%r1),11
	vleb	%v0,0(%r5,%r2),12
	vleb	%v6,1(%r5,%r2),12
	vleb	%v2,0(%r4,%r2),12
	vleb	%v4,1(%r4,%r2),12
	vleb	%v0,0(%r5,%r8),13
	vleb	%v6,1(%r5,%r8),13
	vleb	%v2,0(%r4,%r8),13
	vleb	%v4,1(%r4,%r8),13
	vleb	%v0,0(%r5,%r7),14
	lgr	%r1,%r0
	vleb	%v6,1(%r5,%r7),14
	vleb	%v2,0(%r4,%r7),14
	vleb	%v4,1(%r4,%r7),14
	vleb	%v0,0(%r5,%r1),15
	vleb	%v6,1(%r5,%r1),15
	vleb	%v2,0(%r4,%r1),15
	vleb	%v4,1(%r4,%r1),15
	vuplhb	%v3,%v0
	vuplhb	%v18,%v6
	vuplhb	%v8,%v2
	vuplhb	%v10,%v4
	vupllb	%v0,%v0
	vupllb	%v6,%v6
	vupllb	%v2,%v2
	vupllb	%v4,%v4
	vah	%v18,%v18,%v1
	vah	%v6,%v6,%v1
	vah	%v10,%v10,%v1
	vah	%v4,%v4,%v1
	vah	%v3,%v3,%v1
	vah	%v0,%v0,%v1
	vah	%v8,%v8,%v1
	vah	%v2,%v2,%v1
	lg	%r1,160(%r15)
	vperm	%v16,%v3,%v18,%v7
	vperm	%v3,%v3,%v18,%v5
	vperm	%v18,%v8,%v10,%v7
	vperm	%v8,%v8,%v10,%v5
	agr	%r5,%r1
	vperm	%v10,%v0,%v6,%v7
	vperm	%v0,%v0,%v6,%v5
	vperm	%v6,%v2,%v4,%v7
	vperm	%v2,%v2,%v4,%v5
	vperm	%v20,%v16,%v18,%v7
	vst	%v20,0(%r6)
	vperm	%v16,%v16,%v18,%v5
	vst	%v16,16(%r6)
	vperm	%v18,%v3,%v8,%v7
	vperm	%v4,%v0,%v2,%v7
	vperm	%v3,%v3,%v8,%v5
	vperm	%v0,%v0,%v2,%v5
	vperm	%v8,%v10,%v6,%v7
	vperm	%v10,%v10,%v6,%v5
	vst	%v18,32(%r6)
	vst	%v3,48(%r6)
	vst	%v8,64(%r6)
	vst	%v10,80(%r6)
	vst	%v4,96(%r6)
	vst	%v0,112(%r6)
	agr	%r4,%r1
	lg	%r1,168(%r15)
	aghi	%r6,128
	cgrjnlh	%r6,%r1,.L228
	j	.L131
.L228:
	l	%r3,248(%r15)
	lg	%r8,280(%r15)
	lgr	%r1,%r3
	risbg	%r2,%r3,32,128+59,0
	risbgn	%r1,%r1,29,128+56,3
	ag	%r1,488(%r15)
	lg	%r9,288(%r15)
	lg	%r7,296(%r15)
	tmll	%r3,15
	je	.L133
	sllk	%r3,%r2,1
	lgr	%r4,%r9
	msgfr	%r4,%r3
	lgr	%r5,%r9
	ahi	%r3,1
	msgfr	%r5,%r3
	llc	%r0,0(%r4,%r8)
	l	%r11,240(%r15)
	ar	%r0,%r7
	sth	%r0,0(%r1)
	llc	%r0,0(%r5,%r8)
	ahik	%r3,%r2,1
	ar	%r0,%r7
	sth	%r0,2(%r1)
	llc	%r4,1(%r4,%r8)
	ar	%r4,%r7
	sth	%r4,4(%r1)
	llc	%r4,1(%r5,%r8)
	ar	%r4,%r7
	sth	%r4,6(%r1)
	crjle	%r11,%r3,.L133
	sll	%r3,1
	lgr	%r4,%r9
	msgfr	%r4,%r3
	lgr	%r5,%r9
	ahi	%r3,1
	msgfr	%r5,%r3
	llc	%r0,0(%r4,%r8)
	ahik	%r3,%r2,2
	ar	%r0,%r7
	sth	%r0,8(%r1)
	llc	%r0,0(%r5,%r8)
	ar	%r0,%r7
	sth	%r0,10(%r1)
	llc	%r4,1(%r4,%r8)
	ar	%r4,%r7
	sth	%r4,12(%r1)
	llc	%r4,1(%r5,%r8)
	ar	%r4,%r7
	sth	%r4,14(%r1)
	crjle	%r11,%r3,.L133
	sll	%r3,1
	lgr	%r4,%r9
	msgfr	%r4,%r3
	lgr	%r5,%r9
	ahi	%r3,1
	msgfr	%r5,%r3
	llc	%r0,0(%r4,%r8)
	ahik	%r3,%r2,3
	ar	%r0,%r7
	sth	%r0,16(%r1)
	llc	%r0,0(%r5,%r8)
	ar	%r0,%r7
	sth	%r0,18(%r1)
	llc	%r4,1(%r4,%r8)
	ar	%r4,%r7
	sth	%r4,20(%r1)
	llc	%r4,1(%r5,%r8)
	ar	%r4,%r7
	sth	%r4,22(%r1)
	crjle	%r11,%r3,.L133
	sll	%r3,1
	lgr	%r4,%r9
	msgfr	%r4,%r3
	lgr	%r5,%r9
	ahi	%r3,1
	msgfr	%r5,%r3
	llc	%r0,0(%r4,%r8)
	ahik	%r3,%r2,4
	ar	%r0,%r7
	sth	%r0,24(%r1)
	llc	%r0,0(%r5,%r8)
	ar	%r0,%r7
	sth	%r0,26(%r1)
	llc	%r4,1(%r4,%r8)
	ar	%r4,%r7
	sth	%r4,28(%r1)
	llc	%r4,1(%r5,%r8)
	ar	%r4,%r7
	sth	%r4,30(%r1)
	crjle	%r11,%r3,.L133
	sll	%r3,1
	lgr	%r4,%r9
	msgfr	%r4,%r3
	lgr	%r5,%r9
	ahi	%r3,1
	msgfr	%r5,%r3
	llc	%r0,0(%r4,%r8)
	ahik	%r3,%r2,5
	ar	%r0,%r7
	sth	%r0,32(%r1)
	llc	%r0,0(%r5,%r8)
	ar	%r0,%r7
	sth	%r0,34(%r1)
	llc	%r4,1(%r4,%r8)
	ar	%r4,%r7
	sth	%r4,36(%r1)
	llc	%r4,1(%r5,%r8)
	ar	%r4,%r7
	sth	%r4,38(%r1)
	crjle	%r11,%r3,.L133
	sll	%r3,1
	lgr	%r4,%r9
	msgfr	%r4,%r3
	lgr	%r5,%r9
	ahi	%r3,1
	msgfr	%r5,%r3
	llc	%r0,0(%r4,%r8)
	ahik	%r3,%r2,6
	ar	%r0,%r7
	sth	%r0,40(%r1)
	llc	%r0,0(%r5,%r8)
	ar	%r0,%r7
	sth	%r0,42(%r1)
	llc	%r4,1(%r4,%r8)
	ar	%r4,%r7
	sth	%r4,44(%r1)
	llc	%r4,1(%r5,%r8)
	ar	%r4,%r7
	sth	%r4,46(%r1)
	crjle	%r11,%r3,.L133
	sll	%r3,1
	lgr	%r4,%r9
	msgfr	%r4,%r3
	lgr	%r5,%r9
	ahi	%r3,1
	msgfr	%r5,%r3
	llc	%r0,0(%r4,%r8)
	ahik	%r3,%r2,7
	ar	%r0,%r7
	sth	%r0,48(%r1)
	llc	%r0,0(%r5,%r8)
	ar	%r0,%r7
	sth	%r0,50(%r1)
	llc	%r4,1(%r4,%r8)
	ar	%r4,%r7
	sth	%r4,52(%r1)
	llc	%r4,1(%r5,%r8)
	ar	%r4,%r7
	sth	%r4,54(%r1)
	crjle	%r11,%r3,.L133
	sll	%r3,1
	lgr	%r4,%r9
	msgfr	%r4,%r3
	lgr	%r5,%r9
	ahi	%r3,1
	msgfr	%r5,%r3
	llc	%r0,0(%r4,%r8)
	ahik	%r3,%r2,8
	ar	%r0,%r7
	sth	%r0,56(%r1)
	llc	%r0,0(%r5,%r8)
	ar	%r0,%r7
	sth	%r0,58(%r1)
	llc	%r4,1(%r4,%r8)
	ar	%r4,%r7
	sth	%r4,60(%r1)
	llc	%r4,1(%r5,%r8)
	ar	%r4,%r7
	sth	%r4,62(%r1)
	crjle	%r11,%r3,.L133
	sll	%r3,1
	lgr	%r4,%r9
	msgfr	%r4,%r3
	lgr	%r5,%r9
	ahi	%r3,1
	msgfr	%r5,%r3
	llc	%r0,0(%r4,%r8)
	ahik	%r3,%r2,9
	ar	%r0,%r7
	sth	%r0,64(%r1)
	llc	%r0,0(%r5,%r8)
	ar	%r0,%r7
	sth	%r0,66(%r1)
	llc	%r4,1(%r4,%r8)
	ar	%r4,%r7
	sth	%r4,68(%r1)
	llc	%r4,1(%r5,%r8)
	ar	%r4,%r7
	sth	%r4,70(%r1)
	crjle	%r11,%r3,.L133
	sll	%r3,1
	lgr	%r4,%r9
	msgfr	%r4,%r3
	lgr	%r5,%r9
	ahi	%r3,1
	msgfr	%r5,%r3
	llc	%r0,0(%r4,%r8)
	ahik	%r3,%r2,10
	ar	%r0,%r7
	sth	%r0,72(%r1)
	llc	%r0,0(%r5,%r8)
	ar	%r0,%r7
	sth	%r0,74(%r1)
	llc	%r4,1(%r4,%r8)
	ar	%r4,%r7
	sth	%r4,76(%r1)
	llc	%r4,1(%r5,%r8)
	ar	%r4,%r7
	sth	%r4,78(%r1)
	crjle	%r11,%r3,.L133
	sll	%r3,1
	lgr	%r4,%r9
	msgfr	%r4,%r3
	lgr	%r5,%r9
	ahi	%r3,1
	msgfr	%r5,%r3
	llc	%r0,0(%r4,%r8)
	ahik	%r3,%r2,11
	ar	%r0,%r7
	sth	%r0,80(%r1)
	llc	%r0,0(%r5,%r8)
	ar	%r0,%r7
	sth	%r0,82(%r1)
	llc	%r4,1(%r4,%r8)
	ar	%r4,%r7
	sth	%r4,84(%r1)
	llc	%r4,1(%r5,%r8)
	ar	%r4,%r7
	sth	%r4,86(%r1)
	crjle	%r11,%r3,.L133
	sll	%r3,1
	lgr	%r4,%r9
	msgfr	%r4,%r3
	lgr	%r5,%r9
	ahi	%r3,1
	msgfr	%r5,%r3
	llc	%r0,0(%r4,%r8)
	ahik	%r3,%r2,12
	ar	%r0,%r7
	sth	%r0,88(%r1)
	llc	%r0,0(%r5,%r8)
	ar	%r0,%r7
	sth	%r0,90(%r1)
	llc	%r4,1(%r4,%r8)
	ar	%r4,%r7
	sth	%r4,92(%r1)
	llc	%r4,1(%r5,%r8)
	ar	%r4,%r7
	sth	%r4,94(%r1)
	crjle	%r11,%r3,.L133
	sll	%r3,1
	lgr	%r4,%r9
	msgfr	%r4,%r3
	lgr	%r5,%r9
	ahi	%r3,1
	msgfr	%r5,%r3
	llc	%r0,0(%r4,%r8)
	ahik	%r3,%r2,13
	ar	%r0,%r7
	sth	%r0,96(%r1)
	llc	%r0,0(%r5,%r8)
	ar	%r0,%r7
	sth	%r0,98(%r1)
	llc	%r4,1(%r4,%r8)
	ar	%r4,%r7
	sth	%r4,100(%r1)
	llc	%r4,1(%r5,%r8)
	ar	%r4,%r7
	sth	%r4,102(%r1)
	crjle	%r11,%r3,.L133
	sll	%r3,1
	lgr	%r4,%r9
	msgfr	%r4,%r3
	lgr	%r5,%r9
	ahi	%r3,1
	msgfr	%r5,%r3
	llc	%r3,0(%r4,%r8)
	ahi	%r2,14
	ar	%r3,%r7
	sth	%r3,104(%r1)
	llc	%r3,0(%r5,%r8)
	ar	%r3,%r7
	sth	%r3,106(%r1)
	llc	%r3,1(%r4,%r8)
	ar	%r3,%r7
	sth	%r3,108(%r1)
	llc	%r3,1(%r5,%r8)
	ar	%r3,%r7
	sth	%r3,110(%r1)
	crjle	%r11,%r2,.L133
	sll	%r2,1
	lgr	%r4,%r9
	msgfr	%r4,%r2
	lgr	%r3,%r9
	ahi	%r2,1
	msgfr	%r3,%r2
	llc	%r2,0(%r4,%r8)
	ar	%r2,%r7
	sth	%r2,112(%r1)
	llc	%r2,0(%r3,%r8)
	ar	%r2,%r7
	sth	%r2,114(%r1)
	llc	%r2,1(%r4,%r8)
	ar	%r2,%r7
	sth	%r2,116(%r1)
	llc	%r2,1(%r3,%r8)
	ar	%r2,%r7
	sth	%r2,118(%r1)
.L133:
	l	%r1,240(%r15)
	ahi	%r1,-1
	chsi	212(%r15),1
	risbgn	%r1,%r1,29,128+60,3
	la	%r1,8(%r1)
	locghinh	%r1,8
	ag	%r1,488(%r15)
	stg	%r1,488(%r15)
.L127:
	lg	%r1,208(%r15)
	tmll	%r1,1
	je	.L93
	nill	%r1,65534
	lgr	%r5,%r9
	msgfr	%r5,%r1
	lg	%r2,488(%r15)
	ld	%f8,1472(%r15)
	ld	%f10,1480(%r15)
	llc	%r1,0(%r5,%r8)
	sth	%r7,2(%r2)
	ar	%r1,%r7
	sth	%r1,0(%r2)
	llc	%r1,1(%r5,%r8)
	sth	%r7,6(%r2)
	ar	%r1,%r7
	lmg	%r6,%r15,1536(%r15)
	.cfi_remember_state
	.cfi_restore 15
	.cfi_restore 14
	.cfi_restore 13
	.cfi_restore 12
	.cfi_restore 11
	.cfi_restore 10
	.cfi_restore 9
	.cfi_restore 8
	.cfi_restore 7
	.cfi_restore 6
	.cfi_restore 25
	.cfi_restore 24
	.cfi_def_cfa_offset 160
	sth	%r1,4(%r2)
	br	%r14
.L220:
	.cfi_restore_state
	srak	%r6,%r1,1
	lr	%r5,%r7
	cijlh	%r9,1,.L222
	lgfr	%r1,%r6
	aghi	%r1,-1
	ltr	%r6,%r6
	lg	%r11,488(%r15)
	sllg	%r2,%r1,2
	locghinh	%r1,0
	aghi	%r2,3
	ltr	%r6,%r6
	locghinh	%r2,3
	agr	%r2,%r11
	sllg	%r1,%r1,1
	agrk	%r3,%r0,%r1
	lhi	%r4,0
	ag	%r3,176(%r15)
	clgr	%r11,%r3
	alcr	%r4,%r4
	lhi	%r3,0
	la	%r1,1(%r1,%r8)
	la	%r0,1(%r8)
	clgr	%r8,%r2
	alcr	%r3,%r3
	clgr	%r11,%r1
	lhi	%r1,0
	alcr	%r1,%r1
	clgr	%r0,%r2
	lhi	%r2,0
	alcr	%r2,%r2
	or	%r3,%r4
	or	%r1,%r2
	nrk	%r1,%r3,%r1
	je	.L116
	cijle	%r6,31,.L116
	vl	%v7,.L225-.L224(%r13),3
	vl	%v5,.L226-.L224(%r13),3
	ltr	%r6,%r6
	vlvgh	%v1,%r7,7
	lr	%r4,%r6
	vreph	%v1,%v1,7
	lochinh	%r4,1
	risbgn	%r5,%r4,30,128+57,2
	lgr	%r2,%r8
	agr	%r5,%r11
	lgr	%r1,%r0
	lgr	%r3,%r11
.L119:
	vzero	%v0
	vlr	%v2,%v0
	vleb	%v0,0(%r2),0
	vleb	%v2,0(%r1),0
	vleb	%v0,2(%r2),1
	vleb	%v2,2(%r1),1
	vleb	%v0,4(%r2),2
	vleb	%v2,4(%r1),2
	vleb	%v0,6(%r2),3
	vleb	%v2,6(%r1),3
	vleb	%v0,8(%r2),4
	vleb	%v2,8(%r1),4
	vleb	%v0,10(%r2),5
	vleb	%v2,10(%r1),5
	vleb	%v0,12(%r2),6
	vleb	%v2,12(%r1),6
	vleb	%v0,14(%r2),7
	vleb	%v2,14(%r1),7
	vleb	%v0,16(%r2),8
	vleb	%v2,16(%r1),8
	vleb	%v0,18(%r2),9
	vleb	%v2,18(%r1),9
	vleb	%v0,20(%r2),10
	vleb	%v2,20(%r1),10
	vleb	%v0,22(%r2),11
	vleb	%v2,22(%r1),11
	vleb	%v0,24(%r2),12
	vleb	%v2,24(%r1),12
	vleb	%v0,26(%r2),13
	vleb	%v2,26(%r1),13
	vleb	%v0,28(%r2),14
	vleb	%v2,28(%r1),14
	vleb	%v0,30(%r2),15
	vleb	%v2,30(%r1),15
	vuplhb	%v4,%v0
	vuplhb	%v6,%v2
	vupllb	%v0,%v0
	vupllb	%v2,%v2
	vah	%v6,%v6,%v1
	vah	%v4,%v4,%v1
	vah	%v0,%v0,%v1
	vah	%v2,%v2,%v1
	aghi	%r2,32
	vperm	%v3,%v4,%v6,%v7
	vperm	%v4,%v4,%v6,%v5
	vperm	%v6,%v0,%v2,%v7
	vperm	%v0,%v0,%v2,%v5
	vst	%v3,0(%r3)
	vst	%v4,16(%r3)
	vst	%v6,32(%r3)
	vst	%v0,48(%r3)
	aghi	%r1,32
	aghi	%r3,64
	cgrjlh	%r3,%r5,.L119
	risbgn	%r1,%r4,30,128+57,2
	risbg	%r2,%r4,32,128+59,0
	ag	%r1,488(%r15)
	tmll	%r4,15
	je	.L120
	sllk	%r3,%r2,1
	lgfr	%r4,%r3
	llc	%r4,0(%r4,%r8)
	ahi	%r3,1
	ar	%r4,%r7
	sth	%r4,0(%r1)
	lgfr	%r3,%r3
	llc	%r4,0(%r3,%r8)
	ahik	%r3,%r2,1
	ar	%r4,%r7
	sth	%r4,2(%r1)
	crjh	%r6,%r3,.L223
.L120:
	ahik	%r1,%r6,-1
	ltr	%r6,%r6
	lg	%r2,208(%r15)
	risbgn	%r1,%r1,30,128+61,2
	la	%r1,4(%r1)
	locghinh	%r1,4
	ag	%r1,488(%r15)
	tmll	%r2,1
	je	.L124
.L221:
	l	%r2,212(%r15)
	lgr	%r3,%r9
	nill	%r2,65534
	msgfr	%r3,%r2
	llc	%r2,0(%r3,%r8)
	sth	%r7,2(%r1)
	ar	%r2,%r7
	sth	%r2,0(%r1)
	j	.L124
.L128:
	lt	%r1,240(%r15)
	lr	%r5,%r1
	lg	%r1,488(%r15)
	lochinh	%r5,1
	sllg	%r0,%r9,1
	lgr	%r2,%r8
.L134:
	llc	%r4,0(%r2)
	la	%r1,8(%r1)
	ar	%r4,%r3
	sthy	%r4,-8(%r1)
	llc	%r4,0(%r2,%r9)
	ar	%r4,%r3
	sthy	%r4,-6(%r1)
	llc	%r4,1(%r2)
	ar	%r4,%r3
	sthy	%r4,-4(%r1)
	llc	%r4,1(%r2,%r9)
	agr	%r2,%r0
	ar	%r4,%r3
	sthy	%r4,-2(%r1)
	brct	%r5,.L134
	j	.L133
.L223:
	sll	%r3,1
	lgfr	%r4,%r3
	llc	%r4,0(%r4,%r8)
	ahi	%r3,1
	ar	%r4,%r7
	sth	%r4,4(%r1)
	lgfr	%r3,%r3
	llc	%r4,0(%r3,%r8)
	ahik	%r3,%r2,2
	ar	%r4,%r7
	sth	%r4,6(%r1)
	crjle	%r6,%r3,.L120
	sll	%r3,1
	lgfr	%r4,%r3
	llc	%r4,0(%r4,%r8)
	ahi	%r3,1
	ar	%r4,%r7
	sth	%r4,8(%r1)
	lgfr	%r3,%r3
	llc	%r4,0(%r3,%r8)
	ahik	%r3,%r2,3
	ar	%r4,%r7
	sth	%r4,10(%r1)
	crjle	%r6,%r3,.L120
	sll	%r3,1
	lgfr	%r4,%r3
	llc	%r4,0(%r4,%r8)
	ahi	%r3,1
	ar	%r4,%r7
	sth	%r4,12(%r1)
	lgfr	%r3,%r3
	llc	%r4,0(%r3,%r8)
	ahik	%r3,%r2,4
	ar	%r4,%r7
	sth	%r4,14(%r1)
	crjle	%r6,%r3,.L120
	sll	%r3,1
	lgfr	%r4,%r3
	llc	%r4,0(%r4,%r8)
	ahi	%r3,1
	ar	%r4,%r7
	sth	%r4,16(%r1)
	lgfr	%r3,%r3
	llc	%r4,0(%r3,%r8)
	ahik	%r3,%r2,5
	ar	%r4,%r7
	sth	%r4,18(%r1)
	crjle	%r6,%r3,.L120
	sll	%r3,1
	lgfr	%r4,%r3
	llc	%r4,0(%r4,%r8)
	ahi	%r3,1
	ar	%r4,%r7
	sth	%r4,20(%r1)
	lgfr	%r3,%r3
	llc	%r4,0(%r3,%r8)
	ahik	%r3,%r2,6
	ar	%r4,%r7
	sth	%r4,22(%r1)
	crjle	%r6,%r3,.L120
	sll	%r3,1
	lgfr	%r4,%r3
	llc	%r4,0(%r4,%r8)
	ahi	%r3,1
	ar	%r4,%r7
	sth	%r4,24(%r1)
	lgfr	%r3,%r3
	llc	%r4,0(%r3,%r8)
	ahik	%r3,%r2,7
	ar	%r4,%r7
	sth	%r4,26(%r1)
	crjle	%r6,%r3,.L120
	sll	%r3,1
	lgfr	%r4,%r3
	llc	%r4,0(%r4,%r8)
	ahi	%r3,1
	ar	%r4,%r7
	sth	%r4,28(%r1)
	lgfr	%r3,%r3
	llc	%r4,0(%r3,%r8)
	ahik	%r3,%r2,8
	ar	%r4,%r7
	sth	%r4,30(%r1)
	crjle	%r6,%r3,.L120
	sll	%r3,1
	lgfr	%r4,%r3
	llc	%r4,0(%r4,%r8)
	ahi	%r3,1
	ar	%r4,%r7
	sth	%r4,32(%r1)
	lgfr	%r3,%r3
	llc	%r4,0(%r3,%r8)
	ahik	%r3,%r2,9
	ar	%r4,%r7
	sth	%r4,34(%r1)
	crjle	%r6,%r3,.L120
	sll	%r3,1
	lgfr	%r4,%r3
	llc	%r4,0(%r4,%r8)
	ahi	%r3,1
	ar	%r4,%r7
	sth	%r4,36(%r1)
	lgfr	%r3,%r3
	llc	%r4,0(%r3,%r8)
	ahik	%r3,%r2,10
	ar	%r4,%r7
	sth	%r4,38(%r1)
	crjle	%r6,%r3,.L120
	sll	%r3,1
	lgfr	%r4,%r3
	llc	%r4,0(%r4,%r8)
	ahi	%r3,1
	ar	%r4,%r7
	sth	%r4,40(%r1)
	lgfr	%r3,%r3
	llc	%r4,0(%r3,%r8)
	ahik	%r3,%r2,11
	ar	%r4,%r7
	sth	%r4,42(%r1)
	crjle	%r6,%r3,.L120
	sll	%r3,1
	lgfr	%r4,%r3
	llc	%r4,0(%r4,%r8)
	ahi	%r3,1
	ar	%r4,%r7
	sth	%r4,44(%r1)
	lgfr	%r3,%r3
	llc	%r4,0(%r3,%r8)
	ahik	%r3,%r2,12
	ar	%r4,%r7
	sth	%r4,46(%r1)
	crjle	%r6,%r3,.L120
	sll	%r3,1
	lgfr	%r4,%r3
	llc	%r4,0(%r4,%r8)
	ahi	%r3,1
	ar	%r4,%r7
	sth	%r4,48(%r1)
	lgfr	%r3,%r3
	llc	%r4,0(%r3,%r8)
	ahik	%r3,%r2,13
	ar	%r4,%r7
	sth	%r4,50(%r1)
	crjle	%r6,%r3,.L120
	sll	%r3,1
	lgfr	%r4,%r3
	llc	%r4,0(%r4,%r8)
	ahi	%r3,1
	ar	%r4,%r7
	sth	%r4,52(%r1)
	lgfr	%r3,%r3
	llc	%r3,0(%r3,%r8)
	ahi	%r2,14
	ar	%r3,%r7
	sth	%r3,54(%r1)
	crjle	%r6,%r2,.L120
	sll	%r2,1
	lgfr	%r3,%r2
	llc	%r3,0(%r3,%r8)
	ahi	%r2,1
	ar	%r3,%r7
	sth	%r3,56(%r1)
	lgfr	%r2,%r2
	llc	%r2,0(%r2,%r8)
	ar	%r2,%r7
	sth	%r2,58(%r1)
	j	.L120
.L222:
	lgfr	%r2,%r6
	aghi	%r2,-1
	ltr	%r6,%r6
	lgr	%r1,%r2
	locghinh	%r1,0
	msgr	%r1,%r9
	lg	%r11,488(%r15)
	sllg	%r3,%r2,2
	lg	%r10,176(%r15)
	ltgr	%r9,%r9
	sllg	%r1,%r1,1
	lgr	%r2,%r1
	locghinhe	%r2,0
	aghi	%r3,3
	ltr	%r6,%r6
	locghinh	%r3,3
	agr	%r3,%r11
	ltgr	%r9,%r9
	locghinl	%r1,0
	agrk	%r4,%r0,%r2
	agr	%r4,%r10
	clgr	%r11,%r4
	lhi	%r4,0
	alcr	%r4,%r4
	agr	%r0,%r1
	agr	%r0,%r10
	clgr	%r0,%r3
	lhi	%r0,0
	alcr	%r0,%r0
	agr	%r2,%r9
	agr	%r2,%r8
	clgr	%r11,%r2
	lhi	%r2,0
	alcr	%r2,%r2
	agr	%r1,%r9
	agr	%r1,%r8
	clgr	%r1,%r3
	lhi	%r1,0
	alcr	%r1,%r1
	or	%r4,%r0
	or	%r1,%r2
	nrk	%r1,%r4,%r1
	je	.L109
	cijle	%r6,31,.L109
	ltr	%r6,%r6
	lr	%r1,%r6
	lochinh	%r1,1
	st	%r1,264(%r15)
	risbgn	%r1,%r1,30,128+57,2
	agr	%r1,%r11
	stg	%r1,176(%r15)
	sllg	%r10,%r9,1
	sllg	%r1,%r9,2
	stg	%r1,160(%r15)
	sllg	%r2,%r9,3
	stg	%r2,168(%r15)
	agrk	%r3,%r1,%r10
	sllg	%r5,%r3,1
	stg	%r5,192(%r15)
	agrk	%r1,%r2,%r10
	stg	%r1,184(%r15)
	sllg	%r2,%r3,2
	sgrk	%r5,%r2,%r10
	stg	%r5,232(%r15)
	sllg	%r1,%r1,1
	stg	%r1,224(%r15)
	agrk	%r5,%r2,%r10
	stg	%r5,240(%r15)
	vl	%v7,.L225-.L224(%r13),3
	vl	%v5,.L226-.L224(%r13),3
	sllg	%r1,%r9,4
	sgrk	%r5,%r1,%r10
	stg	%r5,200(%r15)
	sllg	%r5,%r5,1
	stg	%r5,248(%r15)
	sllg	%r0,%r9,5
	vlvgh	%v1,%r7,7
	vreph	%v1,%v1,7
	sgrk	%r5,%r0,%r10
	lgr	%r4,%r11
	agrk	%r11,%r1,%r10
	stg	%r5,256(%r15)
	stg	%r11,216(%r15)
	agrk	%r5,%r8,%r9
	stg	%r9,272(%r15)
	lgr	%r11,%r8
	lgr	%r9,%r8
	lr	%r8,%r6
	lgr	%r6,%r7
.L112:
	vzero	%v0
	lg	%r7,160(%r15)
	vlr	%v2,%v0
	vleb	%v0,0(%r11),0
	vleb	%v2,0(%r5),0
	vleb	%v0,0(%r11,%r10),1
	vleb	%v2,0(%r5,%r10),1
	vleb	%v0,0(%r11,%r7),2
	vleb	%v2,0(%r5,%r7),2
	lg	%r7,168(%r15)
	vleb	%v0,0(%r11,%r3),3
	vleb	%v2,0(%r5,%r3),3
	vleb	%v0,0(%r11,%r7),4
	vleb	%v2,0(%r5,%r7),4
	lg	%r7,184(%r15)
	vleb	%v0,0(%r11,%r7),5
	vleb	%v2,0(%r5,%r7),5
	lg	%r7,192(%r15)
	vleb	%v0,0(%r11,%r7),6
	vleb	%v2,0(%r5,%r7),6
	lg	%r7,200(%r15)
	vleb	%v0,0(%r11,%r7),7
	vleb	%v2,0(%r5,%r7),7
	lg	%r7,216(%r15)
	vleb	%v0,0(%r11,%r1),8
	vleb	%v2,0(%r5,%r1),8
	vleb	%v0,0(%r11,%r7),9
	vleb	%v2,0(%r5,%r7),9
	lg	%r7,224(%r15)
	vleb	%v0,0(%r11,%r7),10
	vleb	%v2,0(%r5,%r7),10
	lg	%r7,232(%r15)
	vleb	%v0,0(%r11,%r7),11
	vleb	%v2,0(%r5,%r7),11
	lg	%r7,240(%r15)
	vleb	%v0,0(%r11,%r2),12
	vleb	%v2,0(%r5,%r2),12
	vleb	%v0,0(%r11,%r7),13
	vleb	%v2,0(%r5,%r7),13
	lg	%r7,248(%r15)
	vleb	%v0,0(%r11,%r7),14
	vleb	%v2,0(%r5,%r7),14
	lg	%r7,256(%r15)
	vleb	%v0,0(%r11,%r7),15
	vleb	%v2,0(%r5,%r7),15
	vuplhb	%v4,%v0
	vuplhb	%v6,%v2
	vupllb	%v0,%v0
	vupllb	%v2,%v2
	vah	%v6,%v6,%v1
	vah	%v4,%v4,%v1
	vah	%v0,%v0,%v1
	vah	%v2,%v2,%v1
	vperm	%v3,%v4,%v6,%v7
	vperm	%v4,%v4,%v6,%v5
	vperm	%v6,%v0,%v2,%v7
	vperm	%v0,%v0,%v2,%v5
	vst	%v3,0(%r4)
	vst	%v4,16(%r4)
	vst	%v6,32(%r4)
	vst	%v0,48(%r4)
	lg	%r7,176(%r15)
	agr	%r11,%r0
	agr	%r5,%r0
	aghi	%r4,64
	cgrjnlh	%r4,%r7,.L229
	j	.L112
.L229:
	l	%r3,264(%r15)
	lgr	%r7,%r6
	lgr	%r1,%r3
	risbg	%r2,%r3,32,128+59,0
	risbgn	%r1,%r1,30,128+57,2
	ag	%r1,488(%r15)
	lr	%r6,%r8
	tmll	%r3,15
	lgr	%r8,%r9
	lg	%r9,272(%r15)
	je	.L217
	sllk	%r3,%r2,1
	lgr	%r4,%r9
	msgfr	%r4,%r3
	lgr	%r5,%r9
	ahi	%r3,1
	msgfr	%r5,%r3
	llc	%r4,0(%r4,%r8)
	ahik	%r3,%r2,1
	ar	%r4,%r7
	sth	%r4,0(%r1)
	llc	%r4,0(%r5,%r8)
	ar	%r4,%r7
	sth	%r4,2(%r1)
	crjh	%r6,%r3,.L200
.L217:
	la	%r0,1(%r8)
	j	.L120
.L200:
	sll	%r3,1
	lgr	%r4,%r9
	msgfr	%r4,%r3
	lgr	%r5,%r9
	ahi	%r3,1
	msgfr	%r5,%r3
	llc	%r4,0(%r4,%r8)
	ahik	%r3,%r2,2
	ar	%r4,%r7
	sth	%r4,4(%r1)
	llc	%r4,0(%r5,%r8)
	ar	%r4,%r7
	sth	%r4,6(%r1)
	crjle	%r6,%r3,.L217
	sll	%r3,1
	lgr	%r4,%r9
	msgfr	%r4,%r3
	lgr	%r5,%r9
	ahi	%r3,1
	msgfr	%r5,%r3
	llc	%r4,0(%r4,%r8)
	ahik	%r3,%r2,3
	ar	%r4,%r7
	sth	%r4,8(%r1)
	llc	%r4,0(%r5,%r8)
	ar	%r4,%r7
	sth	%r4,10(%r1)
	crjle	%r6,%r3,.L217
	sll	%r3,1
	lgr	%r4,%r9
	msgfr	%r4,%r3
	lgr	%r5,%r9
	ahi	%r3,1
	msgfr	%r5,%r3
	llc	%r4,0(%r4,%r8)
	ahik	%r3,%r2,4
	ar	%r4,%r7
	sth	%r4,12(%r1)
	llc	%r4,0(%r5,%r8)
	ar	%r4,%r7
	sth	%r4,14(%r1)
	crjle	%r6,%r3,.L217
	sll	%r3,1
	lgr	%r4,%r9
	msgfr	%r4,%r3
	lgr	%r5,%r9
	ahi	%r3,1
	msgfr	%r5,%r3
	llc	%r4,0(%r4,%r8)
	ahik	%r3,%r2,5
	ar	%r4,%r7
	sth	%r4,16(%r1)
	llc	%r4,0(%r5,%r8)
	ar	%r4,%r7
	sth	%r4,18(%r1)
	crjle	%r6,%r3,.L217
	sll	%r3,1
	lgr	%r4,%r9
	msgfr	%r4,%r3
	lgr	%r5,%r9
	ahi	%r3,1
	msgfr	%r5,%r3
	llc	%r4,0(%r4,%r8)
	ahik	%r3,%r2,6
	ar	%r4,%r7
	sth	%r4,20(%r1)
	llc	%r4,0(%r5,%r8)
	ar	%r4,%r7
	sth	%r4,22(%r1)
	crjle	%r6,%r3,.L217
	sll	%r3,1
	lgr	%r4,%r9
	msgfr	%r4,%r3
	lgr	%r5,%r9
	ahi	%r3,1
	msgfr	%r5,%r3
	llc	%r4,0(%r4,%r8)
	ahik	%r3,%r2,7
	ar	%r4,%r7
	sth	%r4,24(%r1)
	llc	%r4,0(%r5,%r8)
	ar	%r4,%r7
	sth	%r4,26(%r1)
	crjle	%r6,%r3,.L217
	sll	%r3,1
	lgr	%r4,%r9
	msgfr	%r4,%r3
	lgr	%r5,%r9
	ahi	%r3,1
	msgfr	%r5,%r3
	llc	%r4,0(%r4,%r8)
	ahik	%r3,%r2,8
	ar	%r4,%r7
	sth	%r4,28(%r1)
	llc	%r4,0(%r5,%r8)
	ar	%r4,%r7
	sth	%r4,30(%r1)
	crjle	%r6,%r3,.L217
	sll	%r3,1
	lgr	%r4,%r9
	msgfr	%r4,%r3
	lgr	%r5,%r9
	ahi	%r3,1
	msgfr	%r5,%r3
	llc	%r4,0(%r4,%r8)
	ahik	%r3,%r2,9
	ar	%r4,%r7
	sth	%r4,32(%r1)
	llc	%r4,0(%r5,%r8)
	ar	%r4,%r7
	sth	%r4,34(%r1)
	crjle	%r6,%r3,.L217
	sll	%r3,1
	lgr	%r4,%r9
	msgfr	%r4,%r3
	lgr	%r5,%r9
	ahi	%r3,1
	msgfr	%r5,%r3
	llc	%r4,0(%r4,%r8)
	ahik	%r3,%r2,10
	ar	%r4,%r7
	sth	%r4,36(%r1)
	llc	%r4,0(%r5,%r8)
	ar	%r4,%r7
	sth	%r4,38(%r1)
	crjle	%r6,%r3,.L217
	sll	%r3,1
	lgr	%r4,%r9
	msgfr	%r4,%r3
	lgr	%r5,%r9
	ahi	%r3,1
	msgfr	%r5,%r3
	llc	%r4,0(%r4,%r8)
	ahik	%r3,%r2,11
	ar	%r4,%r7
	sth	%r4,40(%r1)
	llc	%r4,0(%r5,%r8)
	ar	%r4,%r7
	sth	%r4,42(%r1)
	crjle	%r6,%r3,.L217
	sll	%r3,1
	lgr	%r4,%r9
	msgfr	%r4,%r3
	lgr	%r5,%r9
	ahi	%r3,1
	msgfr	%r5,%r3
	llc	%r4,0(%r4,%r8)
	ahik	%r3,%r2,12
	ar	%r4,%r7
	sth	%r4,44(%r1)
	llc	%r4,0(%r5,%r8)
	ar	%r4,%r7
	sth	%r4,46(%r1)
	crjle	%r6,%r3,.L217
	sll	%r3,1
	lgr	%r4,%r9
	msgfr	%r4,%r3
	lgr	%r5,%r9
	ahi	%r3,1
	msgfr	%r5,%r3
	llc	%r4,0(%r4,%r8)
	ahik	%r3,%r2,13
	ar	%r4,%r7
	sth	%r4,48(%r1)
	llc	%r4,0(%r5,%r8)
	ar	%r4,%r7
	sth	%r4,50(%r1)
	crjle	%r6,%r3,.L217
	sll	%r3,1
	lgr	%r5,%r9
	msgfr	%r5,%r3
	lgr	%r4,%r9
	ahi	%r3,1
	msgfr	%r4,%r3
	llc	%r3,0(%r5,%r8)
	ahi	%r2,14
	ar	%r3,%r7
	sth	%r3,52(%r1)
	llc	%r3,0(%r4,%r8)
	ar	%r3,%r7
	sth	%r3,54(%r1)
	crjle	%r6,%r2,.L217
	sll	%r2,1
	lgr	%r4,%r9
	msgfr	%r4,%r2
	lgr	%r3,%r9
	ahi	%r2,1
	msgfr	%r3,%r2
	llc	%r2,0(%r4,%r8)
	la	%r0,1(%r8)
	ar	%r2,%r7
	sth	%r2,56(%r1)
	llc	%r2,0(%r3,%r8)
	ar	%r2,%r7
	sth	%r2,58(%r1)
	j	.L120
.L116:
	lg	%r1,488(%r15)
	ltr	%r6,%r6
	lr	%r3,%r6
	lochinh	%r3,1
	lgr	%r2,%r8
.L123:
	llc	%r4,0(%r2)
	la	%r1,4(%r1)
	ar	%r4,%r5
	sthy	%r4,-4(%r1)
	llc	%r4,1(%r2)
	aghi	%r2,2
	ar	%r4,%r5
	sthy	%r4,-2(%r1)
	brct	%r3,.L123
	j	.L120
.L109:
	lg	%r4,488(%r15)
	ltr	%r6,%r6
	lr	%r1,%r6
	lochinh	%r1,1
	sllg	%r0,%r9,1
	lgr	%r2,%r8
.L115:
	llc	%r3,0(%r2)
	la	%r4,4(%r4)
	ar	%r3,%r5
	sthy	%r3,-4(%r4)
	llc	%r3,0(%r2,%r9)
	agr	%r2,%r0
	ar	%r3,%r5
	sthy	%r3,-2(%r4)
	brct	%r1,.L115
	la	%r0,1(%r8)
	j	.L120
	.section	.rodata._Z6pack_KIhsLi4ELi2ELb1EEviiPKT_iPT0_S3_,"aG",@progbits,_Z6pack_KIhsLi4ELi2ELb1EEviiPKT_iPT0_S3_,comdat
	.align	8
.L224:
.L226:
	.byte	8
	.byte	9
	.byte	24
	.byte	25
	.byte	10
	.byte	11
	.byte	26
	.byte	27
	.byte	12
	.byte	13
	.byte	28
	.byte	29
	.byte	14
	.byte	15
	.byte	30
	.byte	31
.L225:
	.byte	0
	.byte	1
	.byte	16
	.byte	17
	.byte	2
	.byte	3
	.byte	18
	.byte	19
	.byte	4
	.byte	5
	.byte	20
	.byte	21
	.byte	6
	.byte	7
	.byte	22
	.byte	23
	.align	2
	.section	.text._Z6pack_KIhsLi4ELi2ELb1EEviiPKT_iPT0_S3_,"axG",@progbits,_Z6pack_KIhsLi4ELi2ELb1EEviiPKT_iPT0_S3_,comdat
	.cfi_endproc
.LFE4894:
	.size	_Z6pack_KIhsLi4ELi2ELb1EEviiPKT_iPT0_S3_, .-_Z6pack_KIhsLi4ELi2ELb1EEviiPKT_iPT0_S3_
	.section	.text._Z6pack_KIhsLi4ELi2ELb0EEviiPKT_iPT0_S3_,"axG",@progbits,_Z6pack_KIhsLi4ELi2ELb0EEviiPKT_iPT0_S3_,comdat
	.align	8
	.align	16
	.weak	_Z6pack_KIhsLi4ELi2ELb0EEviiPKT_iPT0_S3_
	.type	_Z6pack_KIhsLi4ELi2ELb0EEviiPKT_iPT0_S3_, @function
_Z6pack_KIhsLi4ELi2ELb0EEviiPKT_iPT0_S3_:
.LFB4895:
	.cfi_startproc
	stmg	%r6,%r15,48(%r15)
	.cfi_offset 6, -112
	.cfi_offset 7, -104
	.cfi_offset 8, -96
	.cfi_offset 9, -88
	.cfi_offset 10, -80
	.cfi_offset 11, -72
	.cfi_offset 12, -64
	.cfi_offset 13, -56
	.cfi_offset 14, -48
	.cfi_offset 15, -40
	larl	%r13,.L312
	lgr	%r1,%r15
	lay	%r15,-1400(%r15)
	.cfi_def_cfa_offset 1560
	aghi	%r1,-24
	std	%f8,0(%r1)
	std	%f10,8(%r1)
	std	%f12,16(%r1)
	.cfi_offset 24, -184
	.cfi_offset 25, -176
	.cfi_offset 26, -168
	lr	%r1,%r2
	stg	%r2,160(%r15)
	ahi	%r1,1
	stg	%r4,176(%r15)
	nill	%r1,65534
	stg	%r5,184(%r15)
	st	%r1,1176(%r15)
	risbg	%r1,%r3,62,128+32,0
	st	%r1,444(%r15)
	vlvgg	%v24,%r6,0
	lgh	%r2,1566(%r15)
	cijhe	%r3,0,.L231
	asi	444(%r15),-1
	l	%r1,444(%r15)
	oilf	%r1,4294967292
	st	%r1,444(%r15)
	asi	444(%r15),1
.L231:
	lr	%r1,%r3
	s	%r1,444(%r15)
	st	%r1,224(%r15)
	cijle	%r1,0,.L232
	lg	%r4,184(%r15)
	lg	%r5,160(%r15)
	lg	%r11,176(%r15)
	sllg	%r7,%r4,1
	risbg	%r3,%r5,32,128+62,0
	lr	%r1,%r5
	lgr	%r0,%r11
	lgr	%r10,%r7
	agfr	%r0,%r3
	stg	%r0,168(%r15)
	agfr	%r10,%r3
	stg	%r10,520(%r15)
	srl	%r1,31
	ar	%r1,%r5
	agrk	%r6,%r7,%r4
	srak	%r0,%r1,1
	agr	%r10,%r4
	stg	%r10,512(%r15)
	lgr	%r3,%r5
	lr	%r1,%r5
	lgr	%r5,%r11
	nilf	%r1,1
	st	%r1,228(%r15)
	agr	%r5,%r4
	chi	%r3,1
	llgfr	%r1,%r0
	lgr	%r11,%r3
	stg	%r5,1360(%r15)
	sllg	%r3,%r1,1
	locghinh	%r3,2
	stg	%r3,288(%r15)
	lgr	%r10,%r3
	agr	%r3,%r4
	stg	%r3,248(%r15)
	chi	%r11,1
	sllg	%r1,%r1,4
	locghinh	%r1,16
	stg	%r1,256(%r15)
	agrk	%r9,%r7,%r10
	stg	%r9,264(%r15)
	agrk	%r10,%r6,%r10
	stg	%r10,272(%r15)
	chsi	164(%r15),1
	lr	%r3,%r0
	lochinh	%r0,1
	st	%r0,280(%r15)
	nill	%r0,65520
	st	%r0,284(%r15)
	ahik	%r10,%r0,1
	st	%r10,432(%r15)
	sllk	%r1,%r0,1
	lgr	%r8,%r7
	ahik	%r10,%r1,1
	st	%r10,196(%r15)
	agfr	%r8,%r10
	stg	%r8,328(%r15)
	lgr	%r8,%r6
	agfr	%r8,%r10
	stg	%r8,344(%r15)
	ahik	%r9,%r1,2
	st	%r9,200(%r15)
	lgr	%r8,%r7
	agfr	%r8,%r9
	stg	%r8,384(%r15)
	lgr	%r0,%r4
	lgr	%r8,%r6
	agfr	%r0,%r10
	stg	%r0,312(%r15)
	agfr	%r8,%r9
	stg	%r8,400(%r15)
	lgr	%r0,%r4
	ahik	%r8,%r1,3
	st	%r8,208(%r15)
	agfr	%r0,%r9
	stg	%r0,368(%r15)
	lgr	%r9,%r7
	agfr	%r9,%r8
	stg	%r9,392(%r15)
	lgr	%r9,%r6
	agfr	%r9,%r8
	stg	%r9,408(%r15)
	ahik	%r10,%r1,4
	st	%r10,216(%r15)
	lgr	%r9,%r7
	agfr	%r9,%r10
	stg	%r9,464(%r15)
	lgr	%r0,%r4
	lgr	%r9,%r6
	agfr	%r0,%r8
	stg	%r0,376(%r15)
	agfr	%r9,%r10
	stg	%r9,480(%r15)
	lgr	%r0,%r4
	ahik	%r9,%r1,5
	st	%r9,232(%r15)
	agfr	%r0,%r10
	stg	%r0,448(%r15)
	lgr	%r10,%r7
	agfr	%r10,%r9
	stg	%r10,472(%r15)
	lgr	%r10,%r6
	agfr	%r10,%r9
	stg	%r10,488(%r15)
	ahik	%r8,%r1,6
	st	%r8,296(%r15)
	lgr	%r10,%r7
	agfr	%r10,%r8
	stg	%r10,544(%r15)
	lgr	%r0,%r4
	lgr	%r10,%r6
	agfr	%r0,%r9
	stg	%r0,456(%r15)
	agfr	%r10,%r8
	stg	%r10,560(%r15)
	lgr	%r0,%r4
	ahik	%r10,%r1,7
	st	%r10,352(%r15)
	agfr	%r0,%r8
	stg	%r0,528(%r15)
	lgr	%r8,%r7
	agfr	%r8,%r10
	stg	%r8,552(%r15)
	lgr	%r8,%r6
	agfr	%r8,%r10
	stg	%r8,568(%r15)
	ahik	%r9,%r1,8
	st	%r9,648(%r15)
	lgr	%r8,%r7
	agfr	%r8,%r9
	stg	%r8,616(%r15)
	lgr	%r8,%r6
	agfr	%r8,%r9
	stg	%r8,632(%r15)
	lgr	%r0,%r4
	ahik	%r8,%r1,9
	st	%r8,656(%r15)
	agfr	%r0,%r10
	stg	%r0,536(%r15)
	lgr	%r10,%r7
	agfr	%r10,%r8
	stg	%r10,624(%r15)
	lgr	%r10,%r6
	agfr	%r10,%r8
	stg	%r10,640(%r15)
	ahik	%r11,%r1,10
	st	%r11,664(%r15)
	lgr	%r10,%r7
	agfr	%r10,%r11
	stg	%r10,704(%r15)
	lgr	%r0,%r4
	lgr	%r10,%r6
	agfr	%r0,%r9
	stg	%r0,600(%r15)
	agfr	%r10,%r11
	stg	%r10,720(%r15)
	lgr	%r0,%r4
	ahik	%r10,%r1,11
	st	%r10,672(%r15)
	agfr	%r0,%r8
	stg	%r0,608(%r15)
	lgr	%r8,%r7
	agfr	%r8,%r10
	stg	%r8,712(%r15)
	lgr	%r8,%r6
	agfr	%r8,%r10
	stg	%r8,728(%r15)
	ahik	%r9,%r1,12
	st	%r9,736(%r15)
	lgr	%r8,%r7
	agfr	%r8,%r9
	stg	%r8,768(%r15)
	lgr	%r0,%r4
	lgr	%r8,%r6
	agfr	%r0,%r11
	stg	%r0,688(%r15)
	agfr	%r8,%r9
	stg	%r8,784(%r15)
	lgr	%r0,%r4
	ahik	%r8,%r1,13
	st	%r8,744(%r15)
	agfr	%r0,%r10
	stg	%r0,696(%r15)
	lgr	%r10,%r7
	agfr	%r10,%r8
	stg	%r10,776(%r15)
	lgr	%r10,%r6
	agfr	%r10,%r8
	stg	%r10,792(%r15)
	ahik	%r11,%r1,14
	st	%r11,800(%r15)
	lgr	%r10,%r7
	agfr	%r10,%r11
	stg	%r10,840(%r15)
	lgr	%r0,%r4
	lgr	%r10,%r6
	agfr	%r0,%r9
	stg	%r0,752(%r15)
	agfr	%r10,%r11
	stg	%r10,856(%r15)
	lgr	%r0,%r4
	ahik	%r10,%r1,15
	st	%r10,808(%r15)
	agfr	%r0,%r8
	stg	%r0,760(%r15)
	lgr	%r8,%r7
	agfr	%r8,%r10
	stg	%r8,848(%r15)
	lgr	%r0,%r4
	lgr	%r8,%r6
	agfr	%r0,%r11
	stg	%r0,824(%r15)
	agfr	%r8,%r10
	stg	%r8,864(%r15)
	ahik	%r9,%r1,16
	st	%r9,872(%r15)
	lgr	%r0,%r4
	lgr	%r8,%r7
	agfr	%r0,%r10
	stg	%r0,832(%r15)
	agfr	%r8,%r9
	stg	%r8,904(%r15)
	lgr	%r0,%r4
	lgr	%r8,%r6
	agfr	%r0,%r9
	stg	%r0,888(%r15)
	agfr	%r8,%r9
	stg	%r8,920(%r15)
	lgr	%r0,%r4
	ahik	%r8,%r1,17
	st	%r8,880(%r15)
	agfr	%r0,%r8
	stg	%r0,896(%r15)
	lgr	%r0,%r7
	agfr	%r0,%r8
	stg	%r0,912(%r15)
	lgr	%r0,%r6
	agfr	%r0,%r8
	stg	%r0,928(%r15)
	ahik	%r11,%r1,18
	st	%r11,936(%r15)
	lgr	%r0,%r4
	agfr	%r0,%r11
	stg	%r0,968(%r15)
	lgr	%r0,%r7
	agfr	%r0,%r11
	stg	%r0,984(%r15)
	lgr	%r0,%r6
	agfr	%r0,%r11
	stg	%r0,1000(%r15)
	ahik	%r10,%r1,19
	st	%r10,952(%r15)
	lgr	%r0,%r4
	agfr	%r0,%r10
	stg	%r0,976(%r15)
	lgr	%r0,%r7
	agfr	%r0,%r10
	stg	%r0,992(%r15)
	lgr	%r0,%r6
	agfr	%r0,%r10
	stg	%r0,1008(%r15)
	ahik	%r9,%r1,20
	st	%r9,1016(%r15)
	lgr	%r0,%r4
	agfr	%r0,%r9
	stg	%r0,1056(%r15)
	lgr	%r0,%r7
	agfr	%r0,%r9
	stg	%r0,1072(%r15)
	lgr	%r0,%r6
	agfr	%r0,%r9
	stg	%r0,1088(%r15)
	ahik	%r8,%r1,21
	lgr	%r0,%r4
	agfr	%r0,%r8
	stg	%r0,1064(%r15)
	lgr	%r0,%r7
	agfr	%r0,%r8
	stg	%r0,1080(%r15)
	lgr	%r0,%r6
	agfr	%r0,%r8
	stg	%r0,1096(%r15)
	ahik	%r11,%r1,22
	lgr	%r0,%r4
	agfr	%r0,%r11
	stg	%r0,1112(%r15)
	lgr	%r10,%r7
	lr	%r0,%r11
	st	%r0,1024(%r15)
	agfr	%r10,%r11
	stg	%r10,1128(%r15)
	lgr	%r11,%r6
	agfr	%r11,%r0
	stg	%r11,1144(%r15)
	lgr	%r0,%r4
	ahik	%r11,%r1,23
	st	%r11,1032(%r15)
	agfr	%r0,%r11
	stg	%r0,1120(%r15)
	st	%r3,1372(%r15)
	lgr	%r0,%r7
	agfr	%r0,%r11
	stg	%r0,1136(%r15)
	ahik	%r10,%r1,24
	st	%r10,1040(%r15)
	lgr	%r0,%r6
	lgr	%r9,%r7
	agfr	%r0,%r11
	stg	%r0,1152(%r15)
	agfr	%r9,%r10
	stg	%r9,1200(%r15)
	lgr	%r0,%r4
	lgr	%r9,%r6
	agfr	%r0,%r10
	stg	%r0,1184(%r15)
	agfr	%r9,%r10
	stg	%r9,1216(%r15)
	lgr	%r0,%r4
	ahik	%r9,%r1,25
	agfr	%r0,%r9
	stg	%r0,1192(%r15)
	lgr	%r0,%r7
	agfr	%r0,%r9
	stg	%r0,1208(%r15)
	lgr	%r0,%r6
	agfr	%r0,%r9
	stg	%r0,1224(%r15)
	ahik	%r10,%r1,26
	lgr	%r0,%r4
	agfr	%r0,%r10
	stg	%r0,1248(%r15)
	lgr	%r0,%r7
	agfr	%r0,%r10
	stg	%r0,1264(%r15)
	lgr	%r0,%r6
	agfr	%r0,%r10
	stg	%r0,1280(%r15)
	ahik	%r0,%r1,28
	ahik	%r11,%r1,27
	lgr	%r5,%r4
	lr	%r4,%r0
	st	%r4,192(%r15)
	lgr	%r0,%r5
	agfr	%r0,%r11
	stg	%r0,1256(%r15)
	lgr	%r0,%r7
	agfr	%r0,%r11
	stg	%r0,1272(%r15)
	lgr	%r0,%r6
	agfr	%r0,%r11
	stg	%r0,1288(%r15)
	lgr	%r0,%r5
	agfr	%r0,%r4
	stg	%r0,1312(%r15)
	l	%r0,192(%r15)
	lgr	%r4,%r7
	agfr	%r4,%r0
	stg	%r4,1328(%r15)
	lgr	%r4,%r6
	agfr	%r4,%r0
	stg	%r4,1344(%r15)
	lgr	%r0,%r5
	agfr	%r0,%r1
	stg	%r0,304(%r15)
	ahik	%r4,%r1,29
	lgr	%r0,%r5
	agfr	%r0,%r4
	stg	%r0,1320(%r15)
	lgr	%r0,%r7
	agfr	%r0,%r4
	stg	%r0,1336(%r15)
	lgr	%r0,%r6
	agfr	%r0,%r4
	stg	%r0,1352(%r15)
	lgr	%r0,%r7
	agfr	%r0,%r1
	stg	%r0,320(%r15)
	lgr	%r0,%r6
	agfr	%r0,%r1
	stg	%r0,336(%r15)
	l	%r0,284(%r15)
	ahi	%r3,-1
	ahik	%r5,%r0,2
	st	%r5,436(%r15)
	ahik	%r5,%r0,3
	st	%r5,592(%r15)
	ahik	%r5,%r0,4
	st	%r5,596(%r15)
	ahik	%r5,%r0,5
	st	%r5,680(%r15)
	ahik	%r5,%r0,6
	st	%r5,684(%r15)
	ahik	%r5,%r0,7
	st	%r5,816(%r15)
	ahik	%r5,%r0,8
	st	%r5,820(%r15)
	ahik	%r5,%r0,9
	st	%r5,960(%r15)
	ahik	%r5,%r0,10
	st	%r5,964(%r15)
	ahik	%r5,%r0,11
	st	%r5,1104(%r15)
	ahik	%r5,%r0,12
	st	%r5,1108(%r15)
	ahik	%r5,%r0,13
	st	%r5,1180(%r15)
	ahik	%r5,%r0,14
	st	%r5,1368(%r15)
	risbgn	%r3,%r3,28,128+59,4
	la	%r5,16(%r3)
	lgr	%r0,%r5
	lgf	%r5,196(%r15)
	stg	%r5,360(%r15)
	lgf	%r5,200(%r15)
	stg	%r5,416(%r15)
	lgf	%r5,208(%r15)
	stg	%r5,424(%r15)
	lgf	%r5,216(%r15)
	stg	%r5,496(%r15)
	lgf	%r5,232(%r15)
	stg	%r5,504(%r15)
	lgf	%r5,296(%r15)
	stg	%r5,576(%r15)
	lgf	%r5,352(%r15)
	stg	%r5,584(%r15)
	lgf	%r5,648(%r15)
	stg	%r5,648(%r15)
	lgf	%r5,656(%r15)
	stg	%r5,656(%r15)
	lgf	%r5,664(%r15)
	stg	%r5,664(%r15)
	lgf	%r5,672(%r15)
	stg	%r5,672(%r15)
	lgf	%r5,736(%r15)
	stg	%r5,736(%r15)
	lgf	%r5,744(%r15)
	stg	%r5,744(%r15)
	lgf	%r5,800(%r15)
	stg	%r5,800(%r15)
	lgf	%r5,808(%r15)
	stg	%r5,808(%r15)
	lgf	%r5,872(%r15)
	stg	%r5,872(%r15)
	lgf	%r5,880(%r15)
	stg	%r5,880(%r15)
	lgf	%r5,936(%r15)
	stg	%r5,944(%r15)
	lgf	%r5,952(%r15)
	stg	%r5,952(%r15)
	lgf	%r5,1016(%r15)
	stg	%r5,1016(%r15)
	lgfr	%r5,%r8
	stg	%r5,1048(%r15)
	lgf	%r5,1024(%r15)
	stg	%r5,1024(%r15)
	lgf	%r5,1032(%r15)
	stg	%r5,1032(%r15)
	lgf	%r5,1040(%r15)
	stg	%r5,1160(%r15)
	lgfr	%r5,%r9
	stg	%r5,1168(%r15)
	lgfr	%r5,%r10
	stg	%r5,1232(%r15)
	lgfr	%r5,%r11
	stg	%r5,1240(%r15)
	lgf	%r5,192(%r15)
	stg	%r5,1296(%r15)
	l	%r11,280(%r15)
	lgfr	%r5,%r4
	stg	%r5,1304(%r15)
	lgfr	%r5,%r1
	stg	%r5,352(%r15)
	chsi	164(%r15),1
	lgr	%r5,%r11
	locghinh	%r0,16
	stg	%r0,240(%r15)
	risbgn	%r5,%r5,31,128+58,1
	stg	%r5,200(%r15)
	lg	%r0,184(%r15)
	lgr	%r5,%r11
	risbgn	%r5,%r5,28,128+55,4
	stg	%r5,296(%r15)
	l	%r5,1176(%r15)
	sllg	%r4,%r0,2
	stg	%r4,232(%r15)
	stg	%r6,1040(%r15)
	sllk	%r1,%r5,2
	vl	%v23,.L313-.L312(%r13),3
	lgfr	%r4,%r1
	vl	%v21,.L314-.L312(%r13),3
	sllg	%r4,%r4,1
	stg	%r4,208(%r15)
	vl	%v2,.L315-.L312(%r13),3
	vl	%v0,.L316-.L312(%r13),3
	lg	%r1,176(%r15)
	vlgvg	%r4,%v24,0
	lg	%r5,1360(%r15)
	l	%r6,1372(%r15)
	stg	%r7,216(%r15)
	sth	%r2,196(%r15)
	vlvgh	%v1,%r2,7
	vreph	%v1,%v1,7
	mvhi	192(%r15),0
.L241:
	lg	%r0,176(%r15)
	sgrk	%r11,%r1,%r0
	ldgr	%f4,%r11
	l	%r11,164(%r15)
	cijle	%r11,1,.L263
	lg	%r11,216(%r15)
	lg	%r10,256(%r15)
	lg	%r9,184(%r15)
	lg	%r8,248(%r15)
	agrk	%r10,%r4,%r10
	agr	%r11,%r1
	agr	%r9,%r11
	agrk	%r0,%r1,%r8
	lhi	%r8,0
	slgrk	%r3,%r4,%r0
	alcr	%r8,%r8
	lhi	%r0,0
	lhi	%r7,0
	slgrk	%r3,%r5,%r10
	alcr	%r0,%r0
	or	%r0,%r8
	lg	%r8,264(%r15)
	agrk	%r8,%r1,%r8
	slgrk	%r3,%r4,%r8
	lhi	%r8,0
	alcr	%r8,%r8
	slgrk	%r3,%r11,%r10
	alcr	%r7,%r7
	or	%r8,%r7
	nr	%r0,%r8
	lg	%r8,272(%r15)
	chsi	164(%r15),63
	lhi	%r7,0
	lochih	%r7,1
	agrk	%r8,%r1,%r8
	slgrk	%r3,%r4,%r8
	lhi	%r8,0
	alcr	%r8,%r8
	slgrk	%r3,%r9,%r10
	lhi	%r3,0
	alcr	%r3,%r3
	nr	%r0,%r7
	or	%r8,%r3
	nrk	%r3,%r0,%r8
	je	.L264
	lgdr	%r8,%f4
	ag	%r8,288(%r15)
	lgr	%r0,%r8
	ag	%r0,176(%r15)
	slgrk	%r3,%r4,%r0
	lhi	%r0,0
	alcr	%r0,%r0
	slgrk	%r3,%r1,%r10
	lhi	%r10,0
	alcr	%r10,%r10
	ork	%r3,%r0,%r10
	je	.L264
	lgr	%r10,%r4
	lghi	%r8,0
	lh	%r3,196(%r15)
.L237:
	vl	%v16,16(%r1,%r8)
	vl	%v4,16(%r11,%r8)
	vl	%v10,16(%r5,%r8)
	vl	%v8,16(%r8,%r9)
	vl	%v7,0(%r1,%r8)
	vl	%v5,0(%r11,%r8)
	vl	%v3,0(%r5,%r8)
	vl	%v6,0(%r8,%r9)
	lg	%r0,200(%r15)
	vperm	%v20,%v7,%v16,%v23
	vperm	%v18,%v5,%v4,%v23
	vperm	%v7,%v7,%v16,%v21
	vperm	%v5,%v5,%v4,%v21
	vperm	%v16,%v6,%v8,%v23
	vperm	%v4,%v3,%v10,%v23
	vperm	%v6,%v6,%v8,%v21
	vperm	%v3,%v3,%v10,%v21
	vupllb	%v26,%v20
	vuplhb	%v8,%v16
	vuplhb	%v31,%v20
	vuplhb	%v29,%v18
	vupllb	%v19,%v18
	vuplhb	%v27,%v4
	vupllb	%v22,%v4
	vuplhb	%v30,%v7
	vuplhb	%v18,%v5
	vuplhb	%v4,%v3
	vuplhb	%v20,%v6
	vupllb	%v16,%v16
	vupllb	%v7,%v7
	vupllb	%v5,%v5
	vupllb	%v3,%v3
	vupllb	%v6,%v6
	vah	%v31,%v31,%v1
	vah	%v28,%v26,%v1
	vah	%v19,%v19,%v1
	vah	%v27,%v27,%v1
	vah	%v22,%v22,%v1
	vah	%v17,%v8,%v1
	vah	%v30,%v30,%v1
	vah	%v7,%v7,%v1
	vah	%v3,%v3,%v1
	vah	%v20,%v20,%v1
	vah	%v29,%v29,%v1
	vah	%v16,%v16,%v1
	vah	%v18,%v18,%v1
	vah	%v5,%v5,%v1
	vah	%v4,%v4,%v1
	vah	%v6,%v6,%v1
	pfd	2,752(%r10)
	vperm	%v8,%v31,%v29,%v2
	vperm	%v10,%v30,%v18,%v2
	vperm	%v29,%v31,%v29,%v0
	vperm	%v25,%v27,%v17,%v2
	vperm	%v31,%v28,%v19,%v2
	vperm	%v18,%v30,%v18,%v0
	vperm	%v26,%v4,%v20,%v2
	vperm	%v28,%v28,%v19,%v0
	vperm	%v30,%v7,%v5,%v2
	vperm	%v17,%v27,%v17,%v0
	vperm	%v5,%v7,%v5,%v0
	vperm	%v4,%v4,%v20,%v0
	vperm	%v7,%v3,%v6,%v2
	vperm	%v20,%v22,%v16,%v2
	vperm	%v6,%v3,%v6,%v0
	vperm	%v16,%v22,%v16,%v0
	vperm	%v3,%v8,%v25,%v2
	vperm	%v27,%v10,%v26,%v2
	vperm	%v19,%v29,%v17,%v2
	vperm	%v26,%v10,%v26,%v0
	aghi	%r8,32
	vperm	%v22,%v31,%v20,%v2
	vperm	%v10,%v30,%v7,%v2
	vperm	%v25,%v8,%v25,%v0
	vperm	%v17,%v29,%v17,%v0
	vperm	%v20,%v31,%v20,%v0
	vperm	%v29,%v18,%v4,%v2
	vperm	%v30,%v30,%v7,%v0
	vperm	%v4,%v18,%v4,%v0
	vperm	%v18,%v28,%v16,%v2
	vperm	%v16,%v28,%v16,%v0
	vperm	%v28,%v5,%v6,%v2
	vperm	%v6,%v5,%v6,%v0
	vperm	%v31,%v3,%v27,%v2
	vst	%v31,0(%r10)
	vperm	%v12,%v25,%v26,%v2
	vst	%v12,32(%r10)
	vperm	%v27,%v3,%v27,%v0
	vperm	%v25,%v25,%v26,%v0
	vperm	%v3,%v19,%v29,%v2
	vperm	%v26,%v17,%v4,%v2
	vperm	%v8,%v22,%v10,%v2
	vperm	%v17,%v17,%v4,%v0
	vperm	%v7,%v20,%v30,%v2
	vperm	%v5,%v18,%v28,%v2
	vperm	%v4,%v16,%v6,%v2
	vperm	%v19,%v19,%v29,%v0
	vperm	%v22,%v22,%v10,%v0
	vperm	%v20,%v20,%v30,%v0
	vperm	%v18,%v18,%v28,%v0
	vperm	%v16,%v16,%v6,%v0
	vst	%v27,16(%r10)
	vst	%v25,48(%r10)
	vst	%v3,64(%r10)
	vst	%v19,80(%r10)
	vst	%v26,96(%r10)
	vst	%v17,112(%r10)
	vst	%v8,128(%r10)
	vst	%v22,144(%r10)
	vst	%v7,160(%r10)
	vst	%v20,176(%r10)
	vst	%v5,192(%r10)
	vst	%v18,208(%r10)
	vst	%v4,224(%r10)
	vst	%v16,240(%r10)
	aghi	%r10,256
	cgrjnlh	%r8,%r0,.L317
	j	.L237
.L317:
	sth	%r3,196(%r15)
	lg	%r3,296(%r15)
	l	%r0,284(%r15)
	agrk	%r11,%r4,%r3
	l	%r3,280(%r15)
	crje	%r3,%r0,.L239
	lg	%r10,352(%r15)
	l	%r3,432(%r15)
	llc	%r0,0(%r1,%r10)
	lg	%r10,360(%r15)
	ar	%r0,%r2
	sth	%r0,0(%r11)
	llc	%r0,0(%r1,%r10)
	lg	%r10,304(%r15)
	ar	%r0,%r2
	sth	%r0,2(%r11)
	llc	%r0,0(%r1,%r10)
	lg	%r10,312(%r15)
	ar	%r0,%r2
	sth	%r0,4(%r11)
	llc	%r0,0(%r1,%r10)
	lg	%r10,320(%r15)
	ar	%r0,%r2
	sth	%r0,6(%r11)
	llc	%r0,0(%r1,%r10)
	lg	%r10,328(%r15)
	ar	%r0,%r2
	sth	%r0,8(%r11)
	llc	%r0,0(%r1,%r10)
	lg	%r10,336(%r15)
	ar	%r0,%r2
	sth	%r0,10(%r11)
	llc	%r0,0(%r1,%r10)
	lg	%r10,344(%r15)
	ar	%r0,%r2
	sth	%r0,12(%r11)
	llc	%r0,0(%r1,%r10)
	ar	%r0,%r2
	sth	%r0,14(%r11)
	crjle	%r6,%r3,.L239
	lg	%r10,416(%r15)
	l	%r3,436(%r15)
	llc	%r0,0(%r1,%r10)
	lg	%r10,424(%r15)
	ar	%r0,%r2
	sth	%r0,16(%r11)
	llc	%r0,0(%r1,%r10)
	lg	%r10,368(%r15)
	ar	%r0,%r2
	sth	%r0,18(%r11)
	llc	%r0,0(%r1,%r10)
	lg	%r10,376(%r15)
	ar	%r0,%r2
	sth	%r0,20(%r11)
	llc	%r0,0(%r1,%r10)
	lg	%r10,384(%r15)
	ar	%r0,%r2
	sth	%r0,22(%r11)
	llc	%r0,0(%r1,%r10)
	lg	%r10,392(%r15)
	ar	%r0,%r2
	sth	%r0,24(%r11)
	llc	%r0,0(%r1,%r10)
	lg	%r10,400(%r15)
	ar	%r0,%r2
	sth	%r0,26(%r11)
	llc	%r0,0(%r1,%r10)
	lg	%r10,408(%r15)
	ar	%r0,%r2
	sth	%r0,28(%r11)
	llc	%r0,0(%r1,%r10)
	ar	%r0,%r2
	sth	%r0,30(%r11)
	crjle	%r6,%r3,.L239
	lg	%r10,496(%r15)
	l	%r3,592(%r15)
	llc	%r0,0(%r1,%r10)
	lg	%r10,504(%r15)
	ar	%r0,%r2
	sth	%r0,32(%r11)
	llc	%r0,0(%r1,%r10)
	lg	%r10,448(%r15)
	ar	%r0,%r2
	sth	%r0,34(%r11)
	llc	%r0,0(%r1,%r10)
	lg	%r10,456(%r15)
	ar	%r0,%r2
	sth	%r0,36(%r11)
	llc	%r0,0(%r1,%r10)
	lg	%r10,464(%r15)
	ar	%r0,%r2
	sth	%r0,38(%r11)
	llc	%r0,0(%r1,%r10)
	lg	%r10,472(%r15)
	ar	%r0,%r2
	sth	%r0,40(%r11)
	llc	%r0,0(%r1,%r10)
	lg	%r10,480(%r15)
	ar	%r0,%r2
	sth	%r0,42(%r11)
	llc	%r0,0(%r1,%r10)
	lg	%r10,488(%r15)
	ar	%r0,%r2
	sth	%r0,44(%r11)
	llc	%r0,0(%r1,%r10)
	ar	%r0,%r2
	sth	%r0,46(%r11)
	crjle	%r6,%r3,.L239
	lg	%r10,576(%r15)
	l	%r3,596(%r15)
	llc	%r0,0(%r1,%r10)
	lg	%r10,584(%r15)
	ar	%r0,%r2
	sth	%r0,48(%r11)
	llc	%r0,0(%r1,%r10)
	lg	%r10,528(%r15)
	ar	%r0,%r2
	sth	%r0,50(%r11)
	llc	%r0,0(%r1,%r10)
	lg	%r10,536(%r15)
	ar	%r0,%r2
	sth	%r0,52(%r11)
	llc	%r0,0(%r1,%r10)
	lg	%r10,544(%r15)
	ar	%r0,%r2
	sth	%r0,54(%r11)
	llc	%r0,0(%r1,%r10)
	lg	%r10,552(%r15)
	ar	%r0,%r2
	sth	%r0,56(%r11)
	llc	%r0,0(%r1,%r10)
	lg	%r10,560(%r15)
	ar	%r0,%r2
	sth	%r0,58(%r11)
	llc	%r0,0(%r1,%r10)
	lg	%r10,568(%r15)
	ar	%r0,%r2
	sth	%r0,60(%r11)
	llc	%r0,0(%r1,%r10)
	ar	%r0,%r2
	sth	%r0,62(%r11)
	crjle	%r6,%r3,.L239
	lg	%r10,648(%r15)
	l	%r3,680(%r15)
	llc	%r0,0(%r1,%r10)
	lg	%r10,656(%r15)
	ar	%r0,%r2
	sth	%r0,64(%r11)
	llc	%r0,0(%r1,%r10)
	lg	%r10,600(%r15)
	ar	%r0,%r2
	sth	%r0,66(%r11)
	llc	%r0,0(%r1,%r10)
	lg	%r10,608(%r15)
	ar	%r0,%r2
	sth	%r0,68(%r11)
	llc	%r0,0(%r1,%r10)
	lg	%r10,616(%r15)
	ar	%r0,%r2
	sth	%r0,70(%r11)
	llc	%r0,0(%r1,%r10)
	lg	%r10,624(%r15)
	ar	%r0,%r2
	sth	%r0,72(%r11)
	llc	%r0,0(%r1,%r10)
	lg	%r10,632(%r15)
	ar	%r0,%r2
	sth	%r0,74(%r11)
	llc	%r0,0(%r1,%r10)
	lg	%r10,640(%r15)
	ar	%r0,%r2
	sth	%r0,76(%r11)
	llc	%r0,0(%r1,%r10)
	ar	%r0,%r2
	sth	%r0,78(%r11)
	crjle	%r6,%r3,.L239
	lg	%r10,664(%r15)
	l	%r3,684(%r15)
	llc	%r0,0(%r1,%r10)
	lg	%r10,672(%r15)
	ar	%r0,%r2
	sth	%r0,80(%r11)
	llc	%r0,0(%r1,%r10)
	lg	%r10,688(%r15)
	ar	%r0,%r2
	sth	%r0,82(%r11)
	llc	%r0,0(%r1,%r10)
	lg	%r10,696(%r15)
	ar	%r0,%r2
	sth	%r0,84(%r11)
	llc	%r0,0(%r1,%r10)
	lg	%r10,704(%r15)
	ar	%r0,%r2
	sth	%r0,86(%r11)
	llc	%r0,0(%r1,%r10)
	lg	%r10,712(%r15)
	ar	%r0,%r2
	sth	%r0,88(%r11)
	llc	%r0,0(%r1,%r10)
	lg	%r10,720(%r15)
	ar	%r0,%r2
	sth	%r0,90(%r11)
	llc	%r0,0(%r1,%r10)
	lg	%r10,728(%r15)
	ar	%r0,%r2
	sth	%r0,92(%r11)
	llc	%r0,0(%r1,%r10)
	ar	%r0,%r2
	sth	%r0,94(%r11)
	crjle	%r6,%r3,.L239
	lg	%r10,736(%r15)
	l	%r3,816(%r15)
	llc	%r0,0(%r1,%r10)
	lg	%r10,744(%r15)
	ar	%r0,%r2
	sth	%r0,96(%r11)
	llc	%r0,0(%r1,%r10)
	lg	%r10,752(%r15)
	ar	%r0,%r2
	sth	%r0,98(%r11)
	llc	%r0,0(%r1,%r10)
	lg	%r10,760(%r15)
	ar	%r0,%r2
	sth	%r0,100(%r11)
	llc	%r0,0(%r1,%r10)
	lg	%r10,768(%r15)
	ar	%r0,%r2
	sth	%r0,102(%r11)
	llc	%r0,0(%r1,%r10)
	lg	%r10,776(%r15)
	ar	%r0,%r2
	sth	%r0,104(%r11)
	llc	%r0,0(%r1,%r10)
	lg	%r10,784(%r15)
	ar	%r0,%r2
	sth	%r0,106(%r11)
	llc	%r0,0(%r1,%r10)
	lg	%r10,792(%r15)
	ar	%r0,%r2
	sth	%r0,108(%r11)
	llc	%r0,0(%r1,%r10)
	ar	%r0,%r2
	sth	%r0,110(%r11)
	crjle	%r6,%r3,.L239
	lg	%r10,800(%r15)
	l	%r3,820(%r15)
	llc	%r0,0(%r1,%r10)
	lg	%r10,808(%r15)
	ar	%r0,%r2
	sth	%r0,112(%r11)
	llc	%r0,0(%r1,%r10)
	lg	%r10,824(%r15)
	ar	%r0,%r2
	sth	%r0,114(%r11)
	llc	%r0,0(%r1,%r10)
	lg	%r10,832(%r15)
	ar	%r0,%r2
	sth	%r0,116(%r11)
	llc	%r0,0(%r1,%r10)
	lg	%r10,840(%r15)
	ar	%r0,%r2
	sth	%r0,118(%r11)
	llc	%r0,0(%r1,%r10)
	lg	%r10,848(%r15)
	ar	%r0,%r2
	sth	%r0,120(%r11)
	llc	%r0,0(%r1,%r10)
	lg	%r10,856(%r15)
	ar	%r0,%r2
	sth	%r0,122(%r11)
	llc	%r0,0(%r1,%r10)
	lg	%r10,864(%r15)
	ar	%r0,%r2
	sth	%r0,124(%r11)
	llc	%r0,0(%r1,%r10)
	ar	%r0,%r2
	sth	%r0,126(%r11)
	crjle	%r6,%r3,.L239
	lg	%r10,872(%r15)
	l	%r3,960(%r15)
	llc	%r0,0(%r1,%r10)
	lg	%r10,880(%r15)
	ar	%r0,%r2
	sth	%r0,128(%r11)
	llc	%r0,0(%r1,%r10)
	lg	%r10,888(%r15)
	ar	%r0,%r2
	sth	%r0,130(%r11)
	llc	%r0,0(%r1,%r10)
	lg	%r10,896(%r15)
	ar	%r0,%r2
	sth	%r0,132(%r11)
	llc	%r0,0(%r1,%r10)
	lg	%r10,904(%r15)
	ar	%r0,%r2
	sth	%r0,134(%r11)
	llc	%r0,0(%r1,%r10)
	lg	%r10,912(%r15)
	ar	%r0,%r2
	sth	%r0,136(%r11)
	llc	%r0,0(%r1,%r10)
	lg	%r10,920(%r15)
	ar	%r0,%r2
	sth	%r0,138(%r11)
	llc	%r0,0(%r1,%r10)
	lg	%r10,928(%r15)
	ar	%r0,%r2
	sth	%r0,140(%r11)
	llc	%r0,0(%r1,%r10)
	ar	%r0,%r2
	sth	%r0,142(%r11)
	crjle	%r6,%r3,.L239
	lg	%r10,944(%r15)
	l	%r3,964(%r15)
	llc	%r0,0(%r1,%r10)
	lg	%r10,952(%r15)
	ar	%r0,%r2
	sth	%r0,144(%r11)
	llc	%r0,0(%r1,%r10)
	lg	%r10,968(%r15)
	ar	%r0,%r2
	sth	%r0,146(%r11)
	llc	%r0,0(%r1,%r10)
	lg	%r10,976(%r15)
	ar	%r0,%r2
	sth	%r0,148(%r11)
	llc	%r0,0(%r1,%r10)
	lg	%r10,984(%r15)
	ar	%r0,%r2
	sth	%r0,150(%r11)
	llc	%r0,0(%r1,%r10)
	lg	%r10,992(%r15)
	ar	%r0,%r2
	sth	%r0,152(%r11)
	llc	%r0,0(%r1,%r10)
	lg	%r10,1000(%r15)
	ar	%r0,%r2
	sth	%r0,154(%r11)
	llc	%r0,0(%r1,%r10)
	lg	%r10,1008(%r15)
	ar	%r0,%r2
	sth	%r0,156(%r11)
	llc	%r0,0(%r1,%r10)
	ar	%r0,%r2
	sth	%r0,158(%r11)
	crjle	%r6,%r3,.L239
	lg	%r10,1016(%r15)
	l	%r3,1104(%r15)
	llc	%r0,0(%r1,%r10)
	lg	%r10,1048(%r15)
	ar	%r0,%r2
	sth	%r0,160(%r11)
	llc	%r0,0(%r1,%r10)
	lg	%r10,1056(%r15)
	ar	%r0,%r2
	sth	%r0,162(%r11)
	llc	%r0,0(%r1,%r10)
	lg	%r10,1064(%r15)
	ar	%r0,%r2
	sth	%r0,164(%r11)
	llc	%r0,0(%r1,%r10)
	lg	%r10,1072(%r15)
	ar	%r0,%r2
	sth	%r0,166(%r11)
	llc	%r0,0(%r1,%r10)
	lg	%r10,1080(%r15)
	ar	%r0,%r2
	sth	%r0,168(%r11)
	llc	%r0,0(%r1,%r10)
	lg	%r10,1088(%r15)
	ar	%r0,%r2
	sth	%r0,170(%r11)
	llc	%r0,0(%r1,%r10)
	lg	%r10,1096(%r15)
	ar	%r0,%r2
	sth	%r0,172(%r11)
	llc	%r0,0(%r1,%r10)
	ar	%r0,%r2
	sth	%r0,174(%r11)
	crjle	%r6,%r3,.L239
	lg	%r10,1024(%r15)
	l	%r3,1108(%r15)
	llc	%r0,0(%r1,%r10)
	lg	%r10,1032(%r15)
	ar	%r0,%r2
	sth	%r0,176(%r11)
	llc	%r0,0(%r1,%r10)
	lg	%r10,1112(%r15)
	ar	%r0,%r2
	sth	%r0,178(%r11)
	llc	%r0,0(%r1,%r10)
	lg	%r10,1120(%r15)
	ar	%r0,%r2
	sth	%r0,180(%r11)
	llc	%r0,0(%r1,%r10)
	lg	%r10,1128(%r15)
	ar	%r0,%r2
	sth	%r0,182(%r11)
	llc	%r0,0(%r1,%r10)
	lg	%r10,1136(%r15)
	ar	%r0,%r2
	sth	%r0,184(%r11)
	llc	%r0,0(%r1,%r10)
	lg	%r10,1144(%r15)
	ar	%r0,%r2
	sth	%r0,186(%r11)
	llc	%r0,0(%r1,%r10)
	lg	%r10,1152(%r15)
	ar	%r0,%r2
	sth	%r0,188(%r11)
	llc	%r0,0(%r1,%r10)
	ar	%r0,%r2
	sth	%r0,190(%r11)
	crjle	%r6,%r3,.L239
	lg	%r10,1160(%r15)
	l	%r3,1180(%r15)
	llc	%r0,0(%r1,%r10)
	lg	%r10,1168(%r15)
	ar	%r0,%r2
	sth	%r0,192(%r11)
	llc	%r0,0(%r1,%r10)
	lg	%r10,1184(%r15)
	ar	%r0,%r2
	sth	%r0,194(%r11)
	llc	%r0,0(%r1,%r10)
	lg	%r10,1192(%r15)
	ar	%r0,%r2
	sth	%r0,196(%r11)
	llc	%r0,0(%r1,%r10)
	lg	%r10,1200(%r15)
	ar	%r0,%r2
	sth	%r0,198(%r11)
	llc	%r0,0(%r1,%r10)
	lg	%r10,1208(%r15)
	ar	%r0,%r2
	sth	%r0,200(%r11)
	llc	%r0,0(%r1,%r10)
	lg	%r10,1216(%r15)
	ar	%r0,%r2
	sth	%r0,202(%r11)
	llc	%r0,0(%r1,%r10)
	lg	%r10,1224(%r15)
	ar	%r0,%r2
	sth	%r0,204(%r11)
	llc	%r0,0(%r1,%r10)
	ar	%r0,%r2
	sth	%r0,206(%r11)
	crjle	%r6,%r3,.L239
	lg	%r10,1232(%r15)
	l	%r3,1368(%r15)
	llc	%r0,0(%r1,%r10)
	lg	%r10,1240(%r15)
	ar	%r0,%r2
	sth	%r0,208(%r11)
	llc	%r0,0(%r1,%r10)
	lg	%r10,1248(%r15)
	ar	%r0,%r2
	sth	%r0,210(%r11)
	llc	%r0,0(%r1,%r10)
	lg	%r10,1256(%r15)
	ar	%r0,%r2
	sth	%r0,212(%r11)
	llc	%r0,0(%r1,%r10)
	lg	%r10,1264(%r15)
	ar	%r0,%r2
	sth	%r0,214(%r11)
	llc	%r0,0(%r1,%r10)
	lg	%r10,1272(%r15)
	ar	%r0,%r2
	sth	%r0,216(%r11)
	llc	%r0,0(%r1,%r10)
	lg	%r10,1280(%r15)
	ar	%r0,%r2
	sth	%r0,218(%r11)
	llc	%r0,0(%r1,%r10)
	lg	%r10,1288(%r15)
	ar	%r0,%r2
	sth	%r0,220(%r11)
	llc	%r0,0(%r1,%r10)
	ar	%r0,%r2
	sth	%r0,222(%r11)
	crjle	%r6,%r3,.L239
	lg	%r10,1296(%r15)
	llc	%r0,0(%r1,%r10)
	lg	%r10,1304(%r15)
	ar	%r0,%r2
	sth	%r0,224(%r11)
	llc	%r0,0(%r1,%r10)
	lg	%r10,1312(%r15)
	ar	%r0,%r2
	sth	%r0,226(%r11)
	llc	%r0,0(%r1,%r10)
	lg	%r10,1320(%r15)
	ar	%r0,%r2
	sth	%r0,228(%r11)
	llc	%r0,0(%r1,%r10)
	lg	%r10,1328(%r15)
	ar	%r0,%r2
	sth	%r0,230(%r11)
	llc	%r0,0(%r1,%r10)
	lg	%r10,1336(%r15)
	ar	%r0,%r2
	sth	%r0,232(%r11)
	llc	%r0,0(%r1,%r10)
	lg	%r10,1344(%r15)
	ar	%r0,%r2
	sth	%r0,234(%r11)
	llc	%r0,0(%r1,%r10)
	lg	%r10,1352(%r15)
	ar	%r0,%r2
	sth	%r0,236(%r11)
	llc	%r0,0(%r1,%r10)
	ar	%r0,%r2
	sth	%r0,238(%r11)
.L239:
	lg	%r3,240(%r15)
	agrk	%r11,%r4,%r3
.L233:
	l	%r0,228(%r15)
	cije	%r0,0,.L240
	lg	%r10,168(%r15)
	lg	%r9,184(%r15)
	llc	%r0,0(%r10)
	sth	%r2,2(%r11)
	ar	%r0,%r2
	sth	%r0,0(%r11)
	llc	%r0,0(%r10,%r9)
	sth	%r2,6(%r11)
	lg	%r10,520(%r15)
	ar	%r0,%r2
	sth	%r0,4(%r11)
	llc	%r0,0(%r1,%r10)
	sth	%r2,10(%r11)
	lg	%r10,512(%r15)
	ar	%r0,%r2
	sth	%r0,8(%r11)
	llc	%r0,0(%r1,%r10)
	sth	%r2,14(%r11)
	ar	%r0,%r2
	sth	%r0,12(%r11)
.L240:
	lg	%r0,232(%r15)
	lg	%r11,168(%r15)
	asi	192(%r15),4
	agr	%r11,%r0
	stg	%r11,168(%r15)
	agr	%r1,%r0
	agr	%r5,%r0
	l	%r11,192(%r15)
	l	%r0,224(%r15)
	ag	%r4,208(%r15)
	crjh	%r0,%r11,.L241
	lr	%r1,%r0
	ahi	%r1,-1
	risbgn	%r1,%r1,64-30,128+63,32+30
	aghi	%r1,1
	msg	%r1,208(%r15)
	vlgvg	%r3,%v24,0
	agr	%r3,%r1
	vlvgg	%v24,%r3,0
.L232:
	lg	%r4,184(%r15)
	lg	%r1,176(%r15)
	msgf	%r4,224(%r15)
	lg	%r3,440(%r15)
	agr	%r1,%r4
	tmll	%r3,1
	jne	.L307
	lg	%r3,440(%r15)
	tmll	%r3,2
	jne	.L308
.L230:
	ld	%f8,1376(%r15)
	ld	%f10,1384(%r15)
	ld	%f12,1392(%r15)
	lmg	%r6,%r15,1448(%r15)
	.cfi_remember_state
	.cfi_restore 15
	.cfi_restore 14
	.cfi_restore 13
	.cfi_restore 12
	.cfi_restore 11
	.cfi_restore 10
	.cfi_restore 9
	.cfi_restore 8
	.cfi_restore 7
	.cfi_restore 6
	.cfi_restore 26
	.cfi_restore 25
	.cfi_restore 24
	.cfi_def_cfa_offset 160
	br	%r14
.L264:
	.cfi_restore_state
	lgr	%r10,%r1
	lgr	%r0,%r1
	lg	%r7,216(%r15)
	lg	%r1,1040(%r15)
	stg	%r4,936(%r15)
	ltr	%r6,%r6
	lr	%r8,%r6
	lochinh	%r8,1
	lgr	%r9,%r5
	lgr	%r11,%r4
	lh	%r3,196(%r15)
.L234:
	llc	%r4,0(%r10)
	aghi	%r9,2
	ar	%r4,%r3
	sth	%r4,0(%r11)
	llc	%r4,1(%r10)
	la	%r11,16(%r11)
	ar	%r4,%r3
	sthy	%r4,-14(%r11)
	llc	%r4,-2(%r9)
	aghi	%r10,2
	ar	%r4,%r3
	sthy	%r4,-12(%r11)
	llc	%r4,-1(%r9)
	ar	%r4,%r3
	sthy	%r4,-10(%r11)
	llc	%r4,-2(%r10,%r7)
	ar	%r4,%r3
	sthy	%r4,-8(%r11)
	llc	%r4,-1(%r10,%r7)
	ar	%r4,%r3
	sthy	%r4,-6(%r11)
	llc	%r4,-2(%r10,%r1)
	ar	%r4,%r3
	sthy	%r4,-4(%r11)
	llc	%r4,-1(%r10,%r1)
	ar	%r4,%r3
	sthy	%r4,-2(%r11)
	brct	%r8,.L234
	lg	%r4,936(%r15)
	sth	%r3,196(%r15)
	lgr	%r1,%r0
	j	.L239
.L263:
	lgr	%r11,%r4
	j	.L233
.L307:
	l	%r3,164(%r15)
	cijh	%r3,1,.L309
	lg	%r4,160(%r15)
	vlgvg	%r3,%v24,0
	tmll	%r4,1
	jne	.L310
.L251:
	vlgvg	%r4,%v24,0
	lgf	%r3,1176(%r15)
	sllg	%r3,%r3,1
	agr	%r4,%r3
	lg	%r3,440(%r15)
	ag	%r1,184(%r15)
	vlvgg	%v24,%r4,0
	tmll	%r3,2
	je	.L230
.L308:
	lg	%r9,160(%r15)
	srlk	%r5,%r9,31
	ar	%r5,%r9
	sra	%r5,1
	chi	%r9,1
	jle	.L254
	vlgvg	%r0,%v24,0
	llgfr	%r3,%r5
	sllg	%r4,%r3,1
	sllg	%r3,%r3,3
	locghinh	%r3,8
	locghinh	%r4,2
	agr	%r0,%r3
	lg	%r3,184(%r15)
	vlgvg	%r10,%v24,0
	agrk	%r11,%r4,%r3
	agrk	%r3,%r1,%r3
	agr	%r11,%r1
	slgrk	%r11,%r10,%r11
	lhi	%r11,0
	vlgvg	%r8,%v24,0
	alcr	%r11,%r11
	slgrk	%r10,%r3,%r0
	lhi	%r10,0
	alcr	%r10,%r10
	agr	%r4,%r1
	slgrk	%r4,%r8,%r4
	lhi	%r4,0
	alcr	%r4,%r4
	slgrk	%r0,%r1,%r0
	lhi	%r0,0
	alcr	%r0,%r0
	or	%r11,%r10
	or	%r4,%r0
	lr	%r0,%r2
	nrk	%r4,%r11,%r4
	je	.L255
	cijle	%r9,63,.L255
	vl	%v16,.L313-.L312(%r13),3
	vl	%v12,.L314-.L312(%r13),3
	vl	%v5,.L315-.L312(%r13),3
	vl	%v3,.L316-.L312(%r13),3
	vlgvg	%r4,%v24,0
	chi	%r9,1
	vlvgh	%v6,%r2,7
	lr	%r10,%r5
	vreph	%v6,%v6,7
	lochinh	%r10,1
	risbgn	%r0,%r10,31,128+58,1
	lghi	%r11,0
	aghi	%r0,-32
	srlg	%r0,%r0,5
	aghi	%r0,1
.L258:
	vl	%v7,16(%r11,%r1)
	vl	%v1,16(%r3,%r11)
	vl	%v0,0(%r11,%r1)
	vl	%v4,0(%r3,%r11)
	pfd	2,624(%r4)
	aghi	%r11,32
	vperm	%v2,%v0,%v7,%v16
	vperm	%v8,%v4,%v1,%v16
	vperm	%v0,%v0,%v7,%v12
	vperm	%v4,%v4,%v1,%v12
	vuplhb	%v20,%v8
	vuplhb	%v1,%v2
	vuplhb	%v7,%v0
	vuplhb	%v10,%v4
	vupllb	%v2,%v2
	vupllb	%v8,%v8
	vupllb	%v0,%v0
	vupllb	%v4,%v4
	vah	%v20,%v20,%v6
	vah	%v8,%v8,%v6
	vah	%v10,%v10,%v6
	vah	%v4,%v4,%v6
	vah	%v1,%v1,%v6
	vah	%v2,%v2,%v6
	vah	%v7,%v7,%v6
	vah	%v0,%v0,%v6
	vperm	%v18,%v1,%v20,%v5
	vperm	%v1,%v1,%v20,%v3
	vperm	%v20,%v7,%v10,%v5
	vperm	%v7,%v7,%v10,%v3
	vperm	%v10,%v2,%v8,%v5
	vperm	%v2,%v2,%v8,%v3
	vperm	%v8,%v0,%v4,%v5
	vperm	%v0,%v0,%v4,%v3
	vperm	%v22,%v18,%v20,%v5
	vperm	%v4,%v2,%v0,%v5
	vperm	%v18,%v18,%v20,%v3
	vperm	%v0,%v2,%v0,%v3
	vperm	%v20,%v1,%v7,%v5
	vperm	%v1,%v1,%v7,%v3
	vperm	%v7,%v10,%v8,%v5
	vperm	%v10,%v10,%v8,%v3
	vst	%v22,0(%r4)
	vst	%v18,16(%r4)
	vst	%v20,32(%r4)
	vst	%v1,48(%r4)
	vst	%v7,64(%r4)
	vst	%v10,80(%r4)
	vst	%v4,96(%r4)
	vst	%v0,112(%r4)
	aghi	%r4,128
	brctg	%r0,.L258
	vlgvg	%r11,%v24,0
	risbgn	%r4,%r10,29,128+56,3
	risbg	%r0,%r10,32,128+59,0
	agr	%r4,%r11
	tmll	%r10,15
	je	.L260
	sllk	%r10,%r0,1
	lgfr	%r8,%r10
	llc	%r11,0(%r8,%r1)
	ahi	%r10,1
	ar	%r11,%r2
	sth	%r11,0(%r4)
	lgfr	%r10,%r10
	llc	%r9,0(%r10,%r1)
	ahik	%r11,%r0,1
	ar	%r9,%r2
	sth	%r9,2(%r4)
	llc	%r9,0(%r3,%r8)
	ar	%r9,%r2
	sth	%r9,4(%r4)
	llc	%r10,0(%r3,%r10)
	ar	%r10,%r2
	sth	%r10,6(%r4)
	crjle	%r5,%r11,.L260
	sll	%r11,1
	lgfr	%r8,%r11
	llc	%r10,0(%r8,%r1)
	ahi	%r11,1
	ar	%r10,%r2
	sth	%r10,8(%r4)
	lgfr	%r11,%r11
	llc	%r9,0(%r11,%r1)
	ahik	%r10,%r0,2
	ar	%r9,%r2
	sth	%r9,10(%r4)
	llc	%r9,0(%r3,%r8)
	ar	%r9,%r2
	sth	%r9,12(%r4)
	llc	%r11,0(%r3,%r11)
	ar	%r11,%r2
	sth	%r11,14(%r4)
	crjle	%r5,%r10,.L260
	sll	%r10,1
	lgfr	%r8,%r10
	llc	%r9,0(%r8,%r1)
	ahi	%r10,1
	ar	%r9,%r2
	sth	%r9,16(%r4)
	lgfr	%r11,%r10
	llc	%r9,0(%r11,%r1)
	ahik	%r10,%r0,3
	ar	%r9,%r2
	sth	%r9,18(%r4)
	llc	%r9,0(%r3,%r8)
	ar	%r9,%r2
	sth	%r9,20(%r4)
	llc	%r11,0(%r3,%r11)
	ar	%r11,%r2
	sth	%r11,22(%r4)
	crjhe	%r10,%r5,.L260
	sll	%r10,1
	lgfr	%r8,%r10
	llc	%r9,0(%r8,%r1)
	ahi	%r10,1
	ar	%r9,%r2
	sth	%r9,24(%r4)
	lgfr	%r11,%r10
	llc	%r9,0(%r11,%r1)
	ahik	%r10,%r0,4
	ar	%r9,%r2
	sth	%r9,26(%r4)
	llc	%r9,0(%r3,%r8)
	ar	%r9,%r2
	sth	%r9,28(%r4)
	llc	%r11,0(%r3,%r11)
	ar	%r11,%r2
	sth	%r11,30(%r4)
	crjle	%r5,%r10,.L260
	sll	%r10,1
	lgfr	%r8,%r10
	llc	%r9,0(%r8,%r1)
	ahi	%r10,1
	ar	%r9,%r2
	sth	%r9,32(%r4)
	lgfr	%r11,%r10
	llc	%r9,0(%r11,%r1)
	ahik	%r10,%r0,5
	ar	%r9,%r2
	sth	%r9,34(%r4)
	llc	%r9,0(%r3,%r8)
	ar	%r9,%r2
	sth	%r9,36(%r4)
	llc	%r11,0(%r3,%r11)
	ar	%r11,%r2
	sth	%r11,38(%r4)
	crjle	%r5,%r10,.L260
	sll	%r10,1
	lgfr	%r8,%r10
	llc	%r9,0(%r8,%r1)
	ahi	%r10,1
	ar	%r9,%r2
	sth	%r9,40(%r4)
	lgfr	%r11,%r10
	llc	%r9,0(%r11,%r1)
	ahik	%r10,%r0,6
	ar	%r9,%r2
	sth	%r9,42(%r4)
	llc	%r9,0(%r3,%r8)
	ar	%r9,%r2
	sth	%r9,44(%r4)
	llc	%r11,0(%r3,%r11)
	ar	%r11,%r2
	sth	%r11,46(%r4)
	crjle	%r5,%r10,.L260
	sll	%r10,1
	lgfr	%r8,%r10
	llc	%r9,0(%r8,%r1)
	ahi	%r10,1
	ar	%r9,%r2
	sth	%r9,48(%r4)
	lgfr	%r11,%r10
	llc	%r9,0(%r11,%r1)
	ahik	%r10,%r0,7
	ar	%r9,%r2
	sth	%r9,50(%r4)
	llc	%r9,0(%r3,%r8)
	ar	%r9,%r2
	sth	%r9,52(%r4)
	llc	%r11,0(%r3,%r11)
	ar	%r11,%r2
	sth	%r11,54(%r4)
	crjle	%r5,%r10,.L260
	sll	%r10,1
	lgfr	%r8,%r10
	llc	%r9,0(%r8,%r1)
	ahi	%r10,1
	ar	%r9,%r2
	sth	%r9,56(%r4)
	lgfr	%r11,%r10
	llc	%r9,0(%r11,%r1)
	ahik	%r10,%r0,8
	ar	%r9,%r2
	sth	%r9,58(%r4)
	llc	%r9,0(%r3,%r8)
	ar	%r9,%r2
	sth	%r9,60(%r4)
	llc	%r11,0(%r3,%r11)
	ar	%r11,%r2
	sth	%r11,62(%r4)
	crjle	%r5,%r10,.L260
	sll	%r10,1
	lgfr	%r8,%r10
	llc	%r9,0(%r8,%r1)
	ahi	%r10,1
	ar	%r9,%r2
	sth	%r9,64(%r4)
	lgfr	%r11,%r10
	llc	%r9,0(%r11,%r1)
	ahik	%r10,%r0,9
	ar	%r9,%r2
	sth	%r9,66(%r4)
	llc	%r9,0(%r3,%r8)
	ar	%r9,%r2
	sth	%r9,68(%r4)
	llc	%r11,0(%r3,%r11)
	ar	%r11,%r2
	sth	%r11,70(%r4)
	crjle	%r5,%r10,.L260
	sll	%r10,1
	lgfr	%r8,%r10
	llc	%r9,0(%r8,%r1)
	ahi	%r10,1
	ar	%r9,%r2
	sth	%r9,72(%r4)
	lgfr	%r11,%r10
	llc	%r9,0(%r11,%r1)
	ahik	%r10,%r0,10
	ar	%r9,%r2
	sth	%r9,74(%r4)
	llc	%r9,0(%r3,%r8)
	ar	%r9,%r2
	sth	%r9,76(%r4)
	llc	%r11,0(%r3,%r11)
	ar	%r11,%r2
	sth	%r11,78(%r4)
	crjle	%r5,%r10,.L260
	sll	%r10,1
	lgfr	%r8,%r10
	llc	%r9,0(%r8,%r1)
	ahi	%r10,1
	ar	%r9,%r2
	sth	%r9,80(%r4)
	lgfr	%r11,%r10
	llc	%r9,0(%r11,%r1)
	ahik	%r10,%r0,11
	ar	%r9,%r2
	sth	%r9,82(%r4)
	llc	%r9,0(%r3,%r8)
	ar	%r9,%r2
	sth	%r9,84(%r4)
	llc	%r11,0(%r3,%r11)
	ar	%r11,%r2
	sth	%r11,86(%r4)
	crjle	%r5,%r10,.L260
	sll	%r10,1
	lgfr	%r8,%r10
	llc	%r9,0(%r8,%r1)
	ahi	%r10,1
	ar	%r9,%r2
	sth	%r9,88(%r4)
	lgfr	%r11,%r10
	llc	%r9,0(%r11,%r1)
	ahik	%r10,%r0,12
	ar	%r9,%r2
	sth	%r9,90(%r4)
	llc	%r9,0(%r3,%r8)
	ar	%r9,%r2
	sth	%r9,92(%r4)
	llc	%r11,0(%r3,%r11)
	ar	%r11,%r2
	sth	%r11,94(%r4)
	crjle	%r5,%r10,.L260
	sll	%r10,1
	lgfr	%r8,%r10
	llc	%r9,0(%r8,%r1)
	ahi	%r10,1
	ar	%r9,%r2
	sth	%r9,96(%r4)
	lgfr	%r11,%r10
	llc	%r9,0(%r11,%r1)
	ahik	%r10,%r0,13
	ar	%r9,%r2
	sth	%r9,98(%r4)
	llc	%r9,0(%r3,%r8)
	ar	%r9,%r2
	sth	%r9,100(%r4)
	llc	%r11,0(%r3,%r11)
	ar	%r11,%r2
	sth	%r11,102(%r4)
	crjle	%r5,%r10,.L260
	sll	%r10,1
	lgfr	%r9,%r10
	llc	%r8,0(%r9,%r1)
	ahi	%r10,1
	ar	%r8,%r2
	sth	%r8,104(%r4)
	lgfr	%r11,%r10
	llc	%r10,0(%r11,%r1)
	ahi	%r0,14
	ar	%r10,%r2
	sth	%r10,106(%r4)
	llc	%r10,0(%r3,%r9)
	ar	%r10,%r2
	sth	%r10,108(%r4)
	llc	%r11,0(%r3,%r11)
	ar	%r11,%r2
	sth	%r11,110(%r4)
	crjle	%r5,%r0,.L260
	sll	%r0,1
	lgfr	%r10,%r0
	llc	%r11,0(%r10,%r1)
	ahi	%r0,1
	ar	%r11,%r2
	sth	%r11,112(%r4)
	lgfr	%r11,%r0
	llc	%r0,0(%r11,%r1)
	ar	%r0,%r2
	sth	%r0,114(%r4)
	llc	%r0,0(%r3,%r10)
	ar	%r0,%r2
	sth	%r0,116(%r4)
	llc	%r3,0(%r3,%r11)
	ar	%r3,%r2
	sth	%r3,118(%r4)
.L260:
	vlgvg	%r4,%v24,0
	ahi	%r5,-1
	chsi	164(%r15),1
	risbgn	%r5,%r5,29,128+60,3
	la	%r3,8(%r5)
	locghinh	%r3,8
	agr	%r4,%r3
	vlvgg	%v24,%r4,0
.L254:
	lg	%r3,160(%r15)
	tmll	%r3,1
	je	.L230
	vlgvg	%r5,%v24,0
	nill	%r3,65534
	lgfr	%r3,%r3
	llc	%r4,0(%r3,%r1)
	sth	%r2,2(%r5)
	ar	%r4,%r2
	sth	%r4,0(%r5)
	ag	%r1,184(%r15)
	llc	%r1,0(%r1,%r3)
	ld	%f8,1376(%r15)
	ld	%f10,1384(%r15)
	ld	%f12,1392(%r15)
	sth	%r2,6(%r5)
	lmg	%r6,%r15,1448(%r15)
	.cfi_remember_state
	.cfi_restore 15
	.cfi_restore 14
	.cfi_restore 13
	.cfi_restore 12
	.cfi_restore 11
	.cfi_restore 10
	.cfi_restore 9
	.cfi_restore 8
	.cfi_restore 7
	.cfi_restore 6
	.cfi_restore 26
	.cfi_restore 25
	.cfi_restore 24
	.cfi_def_cfa_offset 160
	ar	%r2,%r1
	sth	%r2,4(%r5)
	br	%r14
.L309:
	.cfi_restore_state
	lg	%r0,160(%r15)
	risbg	%r5,%r0,0,128+62,0
	lr	%r3,%r0
	sra	%r3,1
	locghinh	%r5,2
	agr	%r4,%r5
	vlgvg	%r5,%v24,0
	ag	%r4,176(%r15)
	slgrk	%r4,%r5,%r4
	lhi	%r5,0
	risbgn	%r4,%r0,0,128+61,1
	vlgvg	%r0,%v24,0
	alcr	%r5,%r5
	ltr	%r3,%r3
	locghinh	%r4,4
	agr	%r4,%r0
	lhi	%r0,0
	slgrk	%r4,%r1,%r4
	lr	%r4,%r2
	alcr	%r0,%r0
	or	%r5,%r0
	je	.L244
	cijle	%r3,15,.L244
	vlgvg	%r4,%v24,0
	ltr	%r3,%r3
	vlvgh	%v2,%r2,7
	lr	%r0,%r3
	vreph	%v2,%v2,7
	lochinh	%r0,1
	risbgn	%r11,%r0,31,128+59,1
	lgr	%r5,%r1
	agr	%r11,%r1
.L247:
	vl	%v0,0(%r5)
	aghi	%r5,16
	vuplhb	%v4,%v0
	vupllb	%v0,%v0
	vah	%v4,%v4,%v2
	vah	%v0,%v0,%v2
	vst	%v4,0(%r4)
	vst	%v0,16(%r4)
	aghi	%r4,32
	cgrjlh	%r5,%r11,.L247
	vlgvg	%r5,%v24,0
	risbgn	%r4,%r0,30,128+58,2
	risbg	%r11,%r0,32,128+60,0
	agr	%r4,%r5
	tmll	%r0,7
	je	.L249
	sllk	%r5,%r11,1
	lgfr	%r10,%r5
	llc	%r0,0(%r10,%r1)
	ahi	%r5,1
	ar	%r0,%r2
	sth	%r0,0(%r4)
	lgfr	%r5,%r5
	llc	%r0,0(%r5,%r1)
	ahik	%r5,%r11,1
	ar	%r0,%r2
	sth	%r0,2(%r4)
	crjh	%r3,%r5,.L311
.L249:
	ahik	%r4,%r3,-1
	risbgn	%r4,%r4,30,128+61,2
	ltr	%r3,%r3
	la	%r3,4(%r4)
	vlgvg	%r4,%v24,0
	locghinh	%r3,4
	agr	%r3,%r4
	lg	%r4,160(%r15)
	tmll	%r4,1
	je	.L251
.L310:
	l	%r4,164(%r15)
	nill	%r4,65534
	lgfr	%r4,%r4
	llc	%r4,0(%r4,%r1)
	sth	%r2,2(%r3)
	ar	%r4,%r2
	sth	%r4,0(%r3)
	j	.L251
.L255:
	vlgvg	%r4,%v24,0
	ltr	%r5,%r5
	lr	%r10,%r5
	lochinh	%r10,1
	lgr	%r11,%r1
.L261:
	llc	%r9,0(%r11)
	aghi	%r3,2
	ar	%r9,%r0
	sth	%r9,0(%r4)
	llc	%r9,1(%r11)
	la	%r4,8(%r4)
	ar	%r9,%r0
	sthy	%r9,-6(%r4)
	llc	%r9,-2(%r3)
	aghi	%r11,2
	ar	%r9,%r0
	sthy	%r9,-4(%r4)
	llc	%r9,-1(%r3)
	ar	%r9,%r0
	sthy	%r9,-2(%r4)
	brct	%r10,.L261
	j	.L260
.L311:
	sll	%r5,1
	lgfr	%r10,%r5
	llc	%r0,0(%r10,%r1)
	ahi	%r5,1
	ar	%r0,%r2
	sth	%r0,4(%r4)
	lgfr	%r5,%r5
	llc	%r0,0(%r5,%r1)
	ahik	%r5,%r11,2
	ar	%r0,%r2
	sth	%r0,6(%r4)
	crjle	%r3,%r5,.L249
	sll	%r5,1
	lgfr	%r10,%r5
	llc	%r0,0(%r10,%r1)
	ahi	%r5,1
	ar	%r0,%r2
	sth	%r0,8(%r4)
	lgfr	%r5,%r5
	llc	%r0,0(%r5,%r1)
	ahik	%r5,%r11,3
	ar	%r0,%r2
	sth	%r0,10(%r4)
	crjle	%r3,%r5,.L249
	sll	%r5,1
	lgfr	%r10,%r5
	llc	%r0,0(%r10,%r1)
	ahi	%r5,1
	ar	%r0,%r2
	sth	%r0,12(%r4)
	lgfr	%r5,%r5
	llc	%r0,0(%r5,%r1)
	ahik	%r5,%r11,4
	ar	%r0,%r2
	sth	%r0,14(%r4)
	crjle	%r3,%r5,.L249
	sll	%r5,1
	lgfr	%r10,%r5
	llc	%r0,0(%r10,%r1)
	ahi	%r5,1
	ar	%r0,%r2
	sth	%r0,16(%r4)
	lgfr	%r5,%r5
	llc	%r0,0(%r5,%r1)
	ahik	%r5,%r11,5
	ar	%r0,%r2
	sth	%r0,18(%r4)
	crjle	%r3,%r5,.L249
	sll	%r5,1
	lgfr	%r10,%r5
	llc	%r0,0(%r10,%r1)
	ahi	%r5,1
	ar	%r0,%r2
	sth	%r0,20(%r4)
	lgfr	%r5,%r5
	llc	%r0,0(%r5,%r1)
	ahik	%r5,%r11,6
	ar	%r0,%r2
	sth	%r0,22(%r4)
	crjle	%r3,%r5,.L249
	sll	%r5,1
	lgfr	%r11,%r5
	llc	%r0,0(%r11,%r1)
	ahi	%r5,1
	ar	%r0,%r2
	sth	%r0,24(%r4)
	lgfr	%r5,%r5
	llc	%r5,0(%r5,%r1)
	ar	%r5,%r2
	sth	%r5,26(%r4)
	j	.L249
.L244:
	vlgvg	%r11,%v24,0
	ltr	%r3,%r3
	lr	%r5,%r3
	lochinh	%r5,1
	lgr	%r10,%r1
.L250:
	llc	%r0,0(%r10)
	la	%r11,4(%r11)
	ar	%r0,%r4
	sthy	%r0,-4(%r11)
	llc	%r0,1(%r10)
	aghi	%r10,2
	ar	%r0,%r4
	sthy	%r0,-2(%r11)
	brct	%r5,.L250
	j	.L249
	.section	.rodata._Z6pack_KIhsLi4ELi2ELb0EEviiPKT_iPT0_S3_,"aG",@progbits,_Z6pack_KIhsLi4ELi2ELb0EEviiPKT_iPT0_S3_,comdat
	.align	8
.L312:
.L316:
	.byte	8
	.byte	9
	.byte	24
	.byte	25
	.byte	10
	.byte	11
	.byte	26
	.byte	27
	.byte	12
	.byte	13
	.byte	28
	.byte	29
	.byte	14
	.byte	15
	.byte	30
	.byte	31
.L315:
	.byte	0
	.byte	1
	.byte	16
	.byte	17
	.byte	2
	.byte	3
	.byte	18
	.byte	19
	.byte	4
	.byte	5
	.byte	20
	.byte	21
	.byte	6
	.byte	7
	.byte	22
	.byte	23
.L314:
	.byte	1
	.byte	3
	.byte	5
	.byte	7
	.byte	9
	.byte	11
	.byte	13
	.byte	15
	.byte	17
	.byte	19
	.byte	21
	.byte	23
	.byte	25
	.byte	27
	.byte	29
	.byte	31
.L313:
	.byte	0
	.byte	2
	.byte	4
	.byte	6
	.byte	8
	.byte	10
	.byte	12
	.byte	14
	.byte	16
	.byte	18
	.byte	20
	.byte	22
	.byte	24
	.byte	26
	.byte	28
	.byte	30
	.align	2
	.section	.text._Z6pack_KIhsLi4ELi2ELb0EEviiPKT_iPT0_S3_,"axG",@progbits,_Z6pack_KIhsLi4ELi2ELb0EEviiPKT_iPT0_S3_,comdat
	.cfi_endproc
.LFE4895:
	.size	_Z6pack_KIhsLi4ELi2ELb0EEviiPKT_iPT0_S3_, .-_Z6pack_KIhsLi4ELi2ELb0EEviiPKT_iPT0_S3_
	.section	.text._Z6pack_KIhsLi16ELi2ELb0EEviiPKT_iPT0_S3_,"axG",@progbits,_Z6pack_KIhsLi16ELi2ELb0EEviiPKT_iPT0_S3_,comdat
	.align	8
	.align	16
	.weak	_Z6pack_KIhsLi16ELi2ELb0EEviiPKT_iPT0_S3_
	.type	_Z6pack_KIhsLi16ELi2ELb0EEviiPKT_iPT0_S3_, @function
_Z6pack_KIhsLi16ELi2ELb0EEviiPKT_iPT0_S3_:
.LFB4896:
	.cfi_startproc
	stmg	%r6,%r15,48(%r15)
	.cfi_offset 6, -112
	.cfi_offset 7, -104
	.cfi_offset 8, -96
	.cfi_offset 9, -88
	.cfi_offset 10, -80
	.cfi_offset 11, -72
	.cfi_offset 12, -64
	.cfi_offset 13, -56
	.cfi_offset 14, -48
	.cfi_offset 15, -40
	larl	%r13,.L445
	lgr	%r1,%r15
	lay	%r15,-600(%r15)
	.cfi_def_cfa_offset 760
	aghi	%r1,-64
	std	%f8,0(%r1)
	std	%f10,8(%r1)
	std	%f12,16(%r1)
	std	%f14,24(%r1)
	std	%f9,32(%r1)
	std	%f11,40(%r1)
	std	%f13,48(%r1)
	std	%f15,56(%r1)
	.cfi_offset 24, -224
	.cfi_offset 25, -216
	.cfi_offset 26, -208
	.cfi_offset 27, -200
	.cfi_offset 28, -192
	.cfi_offset 29, -184
	.cfi_offset 30, -176
	.cfi_offset 31, -168
	stg	%r4,520(%r15)
	lr	%r1,%r2
	stg	%r2,344(%r15)
	ahi	%r1,1
	stg	%r6,360(%r15)
	nill	%r1,65534
	st	%r1,532(%r15)
	risbg	%r1,%r3,60,128+32,0
	st	%r1,404(%r15)
	lgr	%r7,%r5
	lgh	%r4,766(%r15)
	cijhe	%r3,0,.L319
	asi	404(%r15),-1
	l	%r1,404(%r15)
	oilf	%r1,4294967280
	st	%r1,404(%r15)
	asi	404(%r15),1
.L319:
	lr	%r1,%r3
	s	%r1,404(%r15)
	st	%r1,376(%r15)
	cijle	%r1,0,.L320
	lg	%r0,344(%r15)
	lg	%r5,520(%r15)
	sllg	%r2,%r7,1
	stg	%r2,160(%r15)
	lr	%r1,%r0
	lgr	%r3,%r2
	nill	%r1,65534
	agfr	%r3,%r1
	stg	%r3,512(%r15)
	agrk	%r11,%r3,%r7
	stg	%r11,504(%r15)
	lgr	%r3,%r0
	lgr	%r8,%r5
	agfr	%r8,%r1
	lr	%r1,%r0
	agrk	%r0,%r11,%r7
	stg	%r0,424(%r15)
	agr	%r0,%r7
	stg	%r0,464(%r15)
	agr	%r0,%r7
	stg	%r0,448(%r15)
	agr	%r0,%r7
	stg	%r0,456(%r15)
	agr	%r2,%r7
	agrk	%r11,%r0,%r7
	stg	%r11,408(%r15)
	sllg	%r0,%r2,2
	stg	%r0,304(%r15)
	sgrk	%r10,%r0,%r7
	stg	%r10,320(%r15)
	agr	%r0,%r7
	stg	%r0,328(%r15)
	agr	%r11,%r7
	stg	%r11,432(%r15)
	agr	%r11,%r7
	stg	%r11,440(%r15)
	agrk	%r0,%r11,%r7
	stg	%r0,480(%r15)
	agr	%r0,%r7
	stg	%r0,488(%r15)
	agrk	%r10,%r0,%r7
	stg	%r10,416(%r15)
	sllg	%r0,%r7,3
	stg	%r0,240(%r15)
	sgrk	%r9,%r0,%r7
	agr	%r10,%r7
	stg	%r10,472(%r15)
	agr	%r0,%r7
	stg	%r0,272(%r15)
	agr	%r10,%r7
	stg	%r10,496(%r15)
	sllg	%r11,%r7,2
	stg	%r11,176(%r15)
	sllg	%r0,%r7,4
	stg	%r0,384(%r15)
	agr	%r11,%r7
	sgr	%r0,%r7
	lr	%r10,%r3
	srl	%r1,31
	nilf	%r10,1
	ar	%r1,%r3
	sra	%r1,1
	st	%r1,528(%r15)
	ahi	%r1,-1
	chi	%r3,1
	risbgn	%r1,%r1,26,128+57,6
	la	%r1,64(%r1)
	locghinh	%r1,64
	stg	%r1,392(%r15)
	sllg	%r1,%r2,1
	stg	%r1,224(%r15)
	sllg	%r1,%r11,1
	stg	%r1,288(%r15)
	sllg	%r1,%r9,1
	stg	%r1,336(%r15)
	l	%r1,532(%r15)
	lg	%r6,360(%r15)
	stg	%r2,192(%r15)
	stg	%r11,208(%r15)
	st	%r10,380(%r15)
	sll	%r1,4
	lgfr	%r1,%r1
	sllg	%r1,%r1,1
	stg	%r1,368(%r15)
	stg	%r9,256(%r15)
	stg	%r7,352(%r15)
	lhi	%r9,0
	lgr	%r7,%r6
	lr	%r3,%r4
	lgr	%r6,%r0
.L324:
	l	%r1,348(%r15)
	cijle	%r1,1,.L368
	lg	%r1,352(%r15)
	lgr	%r2,%r5
	agrk	%r11,%r1,%r5
	lt	%r1,528(%r15)
	lr	%r0,%r1
	lochinh	%r0,1
	lgr	%r1,%r7
.L322:
	llc	%r10,0(%r2)
	aghi	%r11,2
	ar	%r10,%r3
	sth	%r10,0(%r1)
	llc	%r10,1(%r2)
	la	%r1,64(%r1)
	ar	%r10,%r3
	sthy	%r10,-62(%r1)
	llc	%r10,-2(%r11)
	aghi	%r2,2
	ar	%r10,%r3
	sthy	%r10,-60(%r1)
	llc	%r10,-1(%r11)
	ar	%r10,%r3
	sthy	%r10,-58(%r1)
	lg	%r10,160(%r15)
	llc	%r10,-2(%r2,%r10)
	ar	%r10,%r3
	sthy	%r10,-56(%r1)
	lg	%r10,160(%r15)
	llc	%r10,-1(%r2,%r10)
	ar	%r10,%r3
	sthy	%r10,-54(%r1)
	lg	%r10,192(%r15)
	llc	%r10,-2(%r2,%r10)
	ar	%r10,%r3
	sthy	%r10,-52(%r1)
	lg	%r10,192(%r15)
	llc	%r10,-1(%r2,%r10)
	ar	%r10,%r3
	sthy	%r10,-50(%r1)
	lg	%r10,176(%r15)
	llc	%r10,-2(%r2,%r10)
	ar	%r10,%r3
	sthy	%r10,-48(%r1)
	lg	%r10,176(%r15)
	llc	%r10,-1(%r2,%r10)
	ar	%r10,%r3
	sthy	%r10,-46(%r1)
	lg	%r10,208(%r15)
	llc	%r10,-2(%r2,%r10)
	ar	%r10,%r3
	sthy	%r10,-44(%r1)
	lg	%r10,208(%r15)
	llc	%r10,-1(%r2,%r10)
	ar	%r10,%r3
	sthy	%r10,-42(%r1)
	lg	%r10,224(%r15)
	llc	%r10,-2(%r2,%r10)
	ar	%r10,%r3
	sthy	%r10,-40(%r1)
	lg	%r10,224(%r15)
	llc	%r10,-1(%r2,%r10)
	ar	%r10,%r3
	sthy	%r10,-38(%r1)
	lg	%r10,256(%r15)
	llc	%r10,-2(%r2,%r10)
	ar	%r10,%r3
	sthy	%r10,-36(%r1)
	lg	%r10,256(%r15)
	llc	%r10,-1(%r2,%r10)
	ar	%r10,%r3
	sthy	%r10,-34(%r1)
	lg	%r10,240(%r15)
	llc	%r10,-2(%r2,%r10)
	ar	%r10,%r3
	sthy	%r10,-32(%r1)
	lg	%r10,240(%r15)
	llc	%r10,-1(%r2,%r10)
	ar	%r10,%r3
	sthy	%r10,-30(%r1)
	lg	%r10,272(%r15)
	llc	%r10,-2(%r2,%r10)
	ar	%r10,%r3
	sthy	%r10,-28(%r1)
	lg	%r10,272(%r15)
	llc	%r10,-1(%r2,%r10)
	ar	%r10,%r3
	sthy	%r10,-26(%r1)
	lg	%r10,288(%r15)
	llc	%r10,-2(%r2,%r10)
	ar	%r10,%r3
	sthy	%r10,-24(%r1)
	lg	%r10,288(%r15)
	llc	%r10,-1(%r2,%r10)
	ar	%r10,%r3
	sthy	%r10,-22(%r1)
	lg	%r10,320(%r15)
	llc	%r10,-2(%r2,%r10)
	ar	%r10,%r3
	sthy	%r10,-20(%r1)
	lg	%r10,320(%r15)
	llc	%r10,-1(%r2,%r10)
	ar	%r10,%r3
	sthy	%r10,-18(%r1)
	lg	%r10,304(%r15)
	llc	%r10,-2(%r2,%r10)
	ar	%r10,%r3
	sthy	%r10,-16(%r1)
	lg	%r10,304(%r15)
	llc	%r10,-1(%r2,%r10)
	ar	%r10,%r3
	sthy	%r10,-14(%r1)
	lg	%r10,328(%r15)
	llc	%r10,-2(%r2,%r10)
	ar	%r10,%r3
	sthy	%r10,-12(%r1)
	lg	%r10,328(%r15)
	llc	%r10,-1(%r2,%r10)
	ar	%r10,%r3
	sthy	%r10,-10(%r1)
	lg	%r10,336(%r15)
	llc	%r10,-2(%r2,%r10)
	ar	%r10,%r3
	sthy	%r10,-8(%r1)
	lg	%r10,336(%r15)
	llc	%r10,-1(%r2,%r10)
	ar	%r10,%r3
	sthy	%r10,-6(%r1)
	llc	%r10,-2(%r2,%r6)
	ar	%r10,%r3
	sthy	%r10,-4(%r1)
	llc	%r10,-1(%r2,%r6)
	ar	%r10,%r3
	sthy	%r10,-2(%r1)
	brct	%r0,.L322
	lg	%r1,392(%r15)
	agrk	%r1,%r7,%r1
.L321:
	l	%r2,380(%r15)
	cije	%r2,0,.L323
	llc	%r2,0(%r8)
	sth	%r4,2(%r1)
	ar	%r2,%r4
	sth	%r2,0(%r1)
	lg	%r2,352(%r15)
	llc	%r2,0(%r8,%r2)
	sth	%r4,6(%r1)
	ar	%r2,%r4
	sth	%r2,4(%r1)
	lg	%r2,512(%r15)
	llc	%r2,0(%r5,%r2)
	sth	%r4,10(%r1)
	ar	%r2,%r4
	sth	%r2,8(%r1)
	lg	%r2,504(%r15)
	llc	%r2,0(%r5,%r2)
	sth	%r4,14(%r1)
	ar	%r2,%r4
	sth	%r2,12(%r1)
	lg	%r2,424(%r15)
	llc	%r2,0(%r5,%r2)
	sth	%r4,18(%r1)
	ar	%r2,%r4
	sth	%r2,16(%r1)
	lg	%r2,464(%r15)
	llc	%r2,0(%r5,%r2)
	sth	%r4,22(%r1)
	ar	%r2,%r4
	sth	%r2,20(%r1)
	lg	%r2,448(%r15)
	llc	%r2,0(%r5,%r2)
	sth	%r4,26(%r1)
	ar	%r2,%r4
	sth	%r2,24(%r1)
	lg	%r2,456(%r15)
	llc	%r2,0(%r5,%r2)
	sth	%r4,30(%r1)
	ar	%r2,%r4
	sth	%r2,28(%r1)
	lg	%r2,408(%r15)
	llc	%r2,0(%r5,%r2)
	sth	%r4,34(%r1)
	ar	%r2,%r4
	sth	%r2,32(%r1)
	lg	%r2,432(%r15)
	llc	%r2,0(%r5,%r2)
	sth	%r4,38(%r1)
	ar	%r2,%r4
	sth	%r2,36(%r1)
	lg	%r2,440(%r15)
	llc	%r2,0(%r5,%r2)
	sth	%r4,42(%r1)
	ar	%r2,%r4
	sth	%r2,40(%r1)
	lg	%r2,480(%r15)
	llc	%r2,0(%r5,%r2)
	sth	%r4,46(%r1)
	ar	%r2,%r4
	sth	%r2,44(%r1)
	lg	%r2,488(%r15)
	llc	%r2,0(%r5,%r2)
	sth	%r4,50(%r1)
	ar	%r2,%r4
	sth	%r2,48(%r1)
	lg	%r2,416(%r15)
	llc	%r2,0(%r5,%r2)
	sth	%r4,54(%r1)
	ar	%r2,%r4
	sth	%r2,52(%r1)
	lg	%r2,472(%r15)
	llc	%r2,0(%r5,%r2)
	sth	%r4,58(%r1)
	ar	%r2,%r4
	sth	%r2,56(%r1)
	lg	%r2,496(%r15)
	llc	%r2,0(%r5,%r2)
	sth	%r4,62(%r1)
	ar	%r2,%r4
	sth	%r2,60(%r1)
.L323:
	lg	%r1,384(%r15)
	ag	%r7,368(%r15)
	agr	%r8,%r1
	agr	%r5,%r1
	l	%r1,376(%r15)
	ahi	%r9,16
	crjh	%r1,%r9,.L324
	ahi	%r1,-1
	risbgn	%r1,%r1,64-28,128+63,32+28
	aghi	%r1,1
	msg	%r1,368(%r15)
	lg	%r7,352(%r15)
	ag	%r1,360(%r15)
	stg	%r1,360(%r15)
.L320:
	lgr	%r3,%r7
	msgf	%r3,376(%r15)
	lg	%r1,520(%r15)
	lg	%r2,400(%r15)
	agr	%r1,%r3
	tmll	%r2,1
	jne	.L436
	lg	%r2,400(%r15)
	tmll	%r2,2
	jne	.L437
.L335:
	lg	%r2,400(%r15)
	tmll	%r2,4
	jne	.L438
.L345:
	lg	%r2,400(%r15)
	tmll	%r2,8
	jne	.L439
.L318:
	ld	%f8,536(%r15)
	ld	%f10,544(%r15)
	ld	%f12,552(%r15)
	ld	%f14,560(%r15)
	ld	%f9,568(%r15)
	ld	%f11,576(%r15)
	ld	%f13,584(%r15)
	ld	%f15,592(%r15)
	lmg	%r6,%r15,648(%r15)
	.cfi_remember_state
	.cfi_restore 15
	.cfi_restore 14
	.cfi_restore 13
	.cfi_restore 12
	.cfi_restore 11
	.cfi_restore 10
	.cfi_restore 9
	.cfi_restore 8
	.cfi_restore 7
	.cfi_restore 6
	.cfi_restore 31
	.cfi_restore 30
	.cfi_restore 29
	.cfi_restore 28
	.cfi_restore 27
	.cfi_restore 26
	.cfi_restore 25
	.cfi_restore 24
	.cfi_def_cfa_offset 160
	br	%r14
.L368:
	.cfi_restore_state
	lgr	%r1,%r7
	j	.L321
.L436:
	l	%r2,348(%r15)
	cijh	%r2,1,.L440
	lg	%r3,344(%r15)
	lg	%r2,360(%r15)
	tmll	%r3,1
	jne	.L441
.L334:
	lgf	%r2,532(%r15)
	sllg	%r2,%r2,1
	ag	%r2,360(%r15)
	stg	%r2,360(%r15)
	lg	%r2,400(%r15)
	agr	%r1,%r7
	tmll	%r2,2
	je	.L335
.L437:
	lg	%r9,344(%r15)
	srlk	%r5,%r9,31
	ar	%r5,%r9
	sra	%r5,1
	chi	%r9,1
	jle	.L370
	lg	%r8,360(%r15)
	llgfr	%r3,%r5
	sllg	%r0,%r3,1
	sllg	%r3,%r3,3
	locghinh	%r0,2
	locghinh	%r3,8
	agr	%r3,%r8
	agrk	%r11,%r7,%r0
	agrk	%r2,%r1,%r7
	agr	%r11,%r1
	slgrk	%r11,%r8,%r11
	lhi	%r11,0
	alcr	%r11,%r11
	slgrk	%r10,%r2,%r3
	lhi	%r10,0
	alcr	%r10,%r10
	agr	%r0,%r1
	slgrk	%r0,%r8,%r0
	lhi	%r0,0
	alcr	%r0,%r0
	slgrk	%r3,%r1,%r3
	lhi	%r3,0
	alcr	%r3,%r3
	or	%r11,%r10
	or	%r0,%r3
	lr	%r3,%r4
	nrk	%r0,%r11,%r0
	je	.L337
	cijle	%r9,63,.L337
	vl	%v12,.L446-.L445(%r13),3
	vl	%v10,.L447-.L445(%r13),3
	vl	%v27,.L448-.L445(%r13),3
	vl	%v25,.L449-.L445(%r13),3
	chi	%r9,1
	vlvgh	%v5,%r4,7
	lr	%r0,%r5
	vreph	%v5,%v5,7
	lochinh	%r0,1
	risbgn	%r10,%r0,31,128+58,1
	lgr	%r3,%r8
	aghi	%r10,-32
	lghi	%r11,0
	srlg	%r10,%r10,5
	aghi	%r10,1
.L340:
	vl	%v1,16(%r11,%r1)
	vl	%v6,16(%r2,%r11)
	vl	%v0,0(%r11,%r1)
	vl	%v4,0(%r2,%r11)
	pfd	2,624(%r3)
	aghi	%r11,32
	vperm	%v2,%v0,%v1,%v12
	vperm	%v3,%v4,%v6,%v12
	vperm	%v0,%v0,%v1,%v10
	vperm	%v4,%v4,%v6,%v10
	vuplhb	%v14,%v3
	vuplhb	%v6,%v2
	vuplhb	%v1,%v0
	vuplhb	%v7,%v4
	vupllb	%v2,%v2
	vupllb	%v3,%v3
	vupllb	%v0,%v0
	vupllb	%v4,%v4
	vah	%v14,%v14,%v5
	vah	%v3,%v3,%v5
	vah	%v7,%v7,%v5
	vah	%v4,%v4,%v5
	vah	%v6,%v6,%v5
	vah	%v2,%v2,%v5
	vah	%v1,%v1,%v5
	vah	%v0,%v0,%v5
	vperm	%v8,%v6,%v14,%v27
	vperm	%v6,%v6,%v14,%v25
	vperm	%v14,%v1,%v7,%v27
	vperm	%v1,%v1,%v7,%v25
	vperm	%v7,%v2,%v3,%v27
	vperm	%v2,%v2,%v3,%v25
	vperm	%v3,%v0,%v4,%v27
	vperm	%v0,%v0,%v4,%v25
	vperm	%v9,%v8,%v14,%v27
	vperm	%v4,%v2,%v0,%v27
	vperm	%v8,%v8,%v14,%v25
	vperm	%v0,%v2,%v0,%v25
	vperm	%v14,%v6,%v1,%v27
	vperm	%v6,%v6,%v1,%v25
	vperm	%v1,%v7,%v3,%v27
	vperm	%v7,%v7,%v3,%v25
	vst	%v9,0(%r3)
	vst	%v8,16(%r3)
	vst	%v14,32(%r3)
	vst	%v6,48(%r3)
	vst	%v1,64(%r3)
	vst	%v7,80(%r3)
	vst	%v4,96(%r3)
	vst	%v0,112(%r3)
	aghi	%r3,128
	brctg	%r10,.L340
	risbgn	%r3,%r0,29,128+56,3
	risbg	%r8,%r0,32,128+59,0
	ag	%r3,360(%r15)
	tmll	%r0,15
	je	.L342
	sllk	%r11,%r8,1
	lgfr	%r9,%r11
	llc	%r0,0(%r9,%r1)
	ahi	%r11,1
	ar	%r0,%r4
	sth	%r0,0(%r3)
	lgfr	%r11,%r11
	llc	%r10,0(%r11,%r1)
	ahik	%r0,%r8,1
	ar	%r10,%r4
	sth	%r10,2(%r3)
	llc	%r10,0(%r2,%r9)
	ar	%r10,%r4
	sth	%r10,4(%r3)
	llc	%r11,0(%r2,%r11)
	ar	%r11,%r4
	sth	%r11,6(%r3)
	crjle	%r5,%r0,.L342
	sll	%r0,1
	lgfr	%r9,%r0
	llc	%r10,0(%r9,%r1)
	ahi	%r0,1
	ar	%r10,%r4
	sth	%r10,8(%r3)
	lgfr	%r11,%r0
	llc	%r10,0(%r11,%r1)
	ahik	%r0,%r8,2
	ar	%r10,%r4
	sth	%r10,10(%r3)
	llc	%r10,0(%r2,%r9)
	ar	%r10,%r4
	sth	%r10,12(%r3)
	llc	%r11,0(%r2,%r11)
	ar	%r11,%r4
	sth	%r11,14(%r3)
	crjle	%r5,%r0,.L342
	sll	%r0,1
	lgfr	%r9,%r0
	llc	%r10,0(%r9,%r1)
	ahi	%r0,1
	ar	%r10,%r4
	sth	%r10,16(%r3)
	lgfr	%r11,%r0
	llc	%r10,0(%r11,%r1)
	ahik	%r0,%r8,3
	ar	%r10,%r4
	sth	%r10,18(%r3)
	llc	%r10,0(%r2,%r9)
	ar	%r10,%r4
	sth	%r10,20(%r3)
	llc	%r11,0(%r2,%r11)
	ar	%r11,%r4
	sth	%r11,22(%r3)
	crjle	%r5,%r0,.L342
	sll	%r0,1
	lgfr	%r9,%r0
	llc	%r10,0(%r9,%r1)
	ahi	%r0,1
	ar	%r10,%r4
	sth	%r10,24(%r3)
	lgfr	%r11,%r0
	llc	%r10,0(%r11,%r1)
	ahik	%r0,%r8,4
	ar	%r10,%r4
	sth	%r10,26(%r3)
	llc	%r10,0(%r2,%r9)
	ar	%r10,%r4
	sth	%r10,28(%r3)
	llc	%r11,0(%r2,%r11)
	ar	%r11,%r4
	sth	%r11,30(%r3)
	crjle	%r5,%r0,.L342
	sll	%r0,1
	lgfr	%r9,%r0
	llc	%r10,0(%r9,%r1)
	ahi	%r0,1
	ar	%r10,%r4
	sth	%r10,32(%r3)
	lgfr	%r11,%r0
	llc	%r10,0(%r11,%r1)
	ahik	%r0,%r8,5
	ar	%r10,%r4
	sth	%r10,34(%r3)
	llc	%r10,0(%r2,%r9)
	ar	%r10,%r4
	sth	%r10,36(%r3)
	llc	%r11,0(%r2,%r11)
	ar	%r11,%r4
	sth	%r11,38(%r3)
	crjle	%r5,%r0,.L342
	sll	%r0,1
	lgfr	%r9,%r0
	llc	%r10,0(%r9,%r1)
	ahi	%r0,1
	ar	%r10,%r4
	sth	%r10,40(%r3)
	lgfr	%r11,%r0
	llc	%r10,0(%r11,%r1)
	ahik	%r0,%r8,6
	ar	%r10,%r4
	sth	%r10,42(%r3)
	llc	%r10,0(%r2,%r9)
	ar	%r10,%r4
	sth	%r10,44(%r3)
	llc	%r11,0(%r2,%r11)
	ar	%r11,%r4
	sth	%r11,46(%r3)
	crjle	%r5,%r0,.L342
	sll	%r0,1
	lgfr	%r9,%r0
	llc	%r10,0(%r9,%r1)
	ahi	%r0,1
	ar	%r10,%r4
	sth	%r10,48(%r3)
	lgfr	%r11,%r0
	llc	%r10,0(%r11,%r1)
	ahik	%r0,%r8,7
	ar	%r10,%r4
	sth	%r10,50(%r3)
	llc	%r10,0(%r2,%r9)
	ar	%r10,%r4
	sth	%r10,52(%r3)
	llc	%r11,0(%r2,%r11)
	ar	%r11,%r4
	sth	%r11,54(%r3)
	crjle	%r5,%r0,.L342
	sll	%r0,1
	lgfr	%r9,%r0
	llc	%r10,0(%r9,%r1)
	ahi	%r0,1
	ar	%r10,%r4
	sth	%r10,56(%r3)
	lgfr	%r11,%r0
	llc	%r10,0(%r11,%r1)
	ahik	%r0,%r8,8
	ar	%r10,%r4
	sth	%r10,58(%r3)
	llc	%r10,0(%r2,%r9)
	ar	%r10,%r4
	sth	%r10,60(%r3)
	llc	%r11,0(%r2,%r11)
	ar	%r11,%r4
	sth	%r11,62(%r3)
	crjle	%r5,%r0,.L342
	sll	%r0,1
	lgfr	%r9,%r0
	llc	%r10,0(%r9,%r1)
	ahi	%r0,1
	ar	%r10,%r4
	sth	%r10,64(%r3)
	lgfr	%r11,%r0
	llc	%r10,0(%r11,%r1)
	ahik	%r0,%r8,9
	ar	%r10,%r4
	sth	%r10,66(%r3)
	llc	%r10,0(%r2,%r9)
	ar	%r10,%r4
	sth	%r10,68(%r3)
	llc	%r11,0(%r2,%r11)
	ar	%r11,%r4
	sth	%r11,70(%r3)
	crjle	%r5,%r0,.L342
	sll	%r0,1
	lgfr	%r9,%r0
	llc	%r10,0(%r9,%r1)
	ahi	%r0,1
	ar	%r10,%r4
	sth	%r10,72(%r3)
	lgfr	%r11,%r0
	llc	%r10,0(%r11,%r1)
	ahik	%r0,%r8,10
	ar	%r10,%r4
	sth	%r10,74(%r3)
	llc	%r10,0(%r2,%r9)
	ar	%r10,%r4
	sth	%r10,76(%r3)
	llc	%r11,0(%r2,%r11)
	ar	%r11,%r4
	sth	%r11,78(%r3)
	crjle	%r5,%r0,.L342
	sll	%r0,1
	lgfr	%r9,%r0
	llc	%r10,0(%r9,%r1)
	ahi	%r0,1
	ar	%r10,%r4
	sth	%r10,80(%r3)
	lgfr	%r11,%r0
	llc	%r10,0(%r11,%r1)
	ahik	%r0,%r8,11
	ar	%r10,%r4
	sth	%r10,82(%r3)
	llc	%r10,0(%r2,%r9)
	ar	%r10,%r4
	sth	%r10,84(%r3)
	llc	%r11,0(%r2,%r11)
	ar	%r11,%r4
	sth	%r11,86(%r3)
	crjle	%r5,%r0,.L342
	sll	%r0,1
	lgfr	%r9,%r0
	llc	%r10,0(%r9,%r1)
	ahi	%r0,1
	ar	%r10,%r4
	sth	%r10,88(%r3)
	lgfr	%r11,%r0
	llc	%r10,0(%r11,%r1)
	ahik	%r0,%r8,12
	ar	%r10,%r4
	sth	%r10,90(%r3)
	llc	%r10,0(%r2,%r9)
	ar	%r10,%r4
	sth	%r10,92(%r3)
	llc	%r11,0(%r2,%r11)
	ar	%r11,%r4
	sth	%r11,94(%r3)
	crjle	%r5,%r0,.L342
	sll	%r0,1
	lgfr	%r9,%r0
	llc	%r10,0(%r9,%r1)
	ahi	%r0,1
	ar	%r10,%r4
	sth	%r10,96(%r3)
	lgfr	%r11,%r0
	llc	%r10,0(%r11,%r1)
	ahik	%r0,%r8,13
	ar	%r10,%r4
	sth	%r10,98(%r3)
	llc	%r10,0(%r2,%r9)
	ar	%r10,%r4
	sth	%r10,100(%r3)
	llc	%r11,0(%r2,%r11)
	ar	%r11,%r4
	sth	%r11,102(%r3)
	crjle	%r5,%r0,.L342
	sll	%r0,1
	lgfr	%r9,%r0
	llc	%r10,0(%r9,%r1)
	ahi	%r0,1
	ar	%r10,%r4
	sth	%r10,104(%r3)
	lgfr	%r11,%r0
	llc	%r10,0(%r11,%r1)
	ahik	%r0,%r8,14
	ar	%r10,%r4
	sth	%r10,106(%r3)
	llc	%r10,0(%r2,%r9)
	ar	%r10,%r4
	sth	%r10,108(%r3)
	llc	%r11,0(%r2,%r11)
	ar	%r11,%r4
	sth	%r11,110(%r3)
	crjle	%r5,%r0,.L342
	sll	%r0,1
	lgfr	%r10,%r0
	llc	%r9,0(%r10,%r1)
	ahi	%r0,1
	ar	%r9,%r4
	sth	%r9,112(%r3)
	lgfr	%r11,%r0
	llc	%r0,0(%r11,%r1)
	ar	%r0,%r4
	sth	%r0,114(%r3)
	llc	%r0,0(%r2,%r10)
	ar	%r0,%r4
	sth	%r0,116(%r3)
	llc	%r2,0(%r2,%r11)
	ar	%r2,%r4
	sth	%r2,118(%r3)
.L342:
	ahi	%r5,-1
	chsi	348(%r15),1
	risbgn	%r5,%r5,29,128+60,3
	la	%r2,8(%r5)
	locghinh	%r2,8
	ag	%r2,360(%r15)
.L336:
	lg	%r3,344(%r15)
	tmll	%r3,1
	je	.L344
	nill	%r3,65534
	lgfr	%r3,%r3
	llc	%r5,0(%r3,%r1)
	sth	%r4,2(%r2)
	ar	%r5,%r4
	sth	%r5,0(%r2)
	agrk	%r5,%r1,%r7
	llc	%r3,0(%r5,%r3)
	sth	%r4,6(%r2)
	ar	%r3,%r4
	sth	%r3,4(%r2)
.L344:
	l	%r2,532(%r15)
	sll	%r2,1
	lgfr	%r2,%r2
	sllg	%r2,%r2,1
	ag	%r2,360(%r15)
	stg	%r2,360(%r15)
	sllg	%r2,%r7,1
	agr	%r1,%r2
	lg	%r2,400(%r15)
	tmll	%r2,4
	je	.L345
.L438:
	lg	%r2,344(%r15)
	srlk	%r6,%r2,31
	ar	%r6,%r2
	sra	%r6,1
	chsi	348(%r15),1
	jle	.L371
	lg	%r9,360(%r15)
	llgfr	%r3,%r6
	sllg	%r5,%r3,1
	sllg	%r3,%r3,4
	locghinh	%r5,2
	locghinh	%r3,16
	agr	%r3,%r9
	sllg	%r11,%r7,1
	agrk	%r8,%r1,%r11
	agrk	%r0,%r11,%r5
	sgrk	%r2,%r8,%r7
	stg	%r2,160(%r15)
	agrk	%r10,%r11,%r7
	agr	%r0,%r1
	slgrk	%r0,%r9,%r0
	lhi	%r0,0
	alcr	%r0,%r0
	lr	%r2,%r0
	slgrk	%r0,%r8,%r3
	lhi	%r0,0
	alcr	%r0,%r0
	agrk	%r9,%r5,%r10
	agr	%r9,%r1
	la	%r8,0(%r7,%r8)
	or	%r0,%r2
	lg	%r2,360(%r15)
	slgrk	%r9,%r2,%r9
	lhi	%r9,0
	alcr	%r9,%r9
	slgr	%r8,%r3
	lhi	%r8,0
	alcr	%r8,%r8
	or	%r9,%r8
	nr	%r0,%r9
	chsi	348(%r15),63
	lhi	%r8,0
	lochih	%r8,1
	st	%r8,176(%r15)
	agrk	%r9,%r7,%r5
	agr	%r9,%r1
	slgrk	%r9,%r2,%r9
	lhi	%r9,0
	lg	%r8,160(%r15)
	alcr	%r9,%r9
	slgr	%r8,%r3
	lhi	%r8,0
	alcr	%r8,%r8
	n	%r0,176(%r15)
	or	%r9,%r8
	lr	%r8,%r4
	nr	%r0,%r9
	je	.L347
	agr	%r5,%r1
	slgrk	%r5,%r2,%r5
	lhi	%r5,0
	alcr	%r5,%r5
	slgrk	%r0,%r1,%r3
	lhi	%r3,0
	alcr	%r3,%r3
	or	%r5,%r3
	je	.L347
	vl	%v9,.L446-.L445(%r13),3
	vl	%v14,.L447-.L445(%r13),3
	vl	%v27,.L448-.L445(%r13),3
	vl	%v25,.L449-.L445(%r13),3
	lg	%r8,160(%r15)
	chsi	348(%r15),1
	vlvgh	%v4,%r4,7
	vreph	%v4,%v4,7
	lr	%r0,%r6
	lochinh	%r0,1
	risbgn	%r9,%r0,31,128+58,1
	agrk	%r11,%r8,%r7
	aghi	%r9,-32
	lgr	%r3,%r2
	srlg	%r9,%r9,5
	agrk	%r10,%r11,%r7
	aghi	%r9,1
	lghi	%r5,0
	lgr	%r2,%r8
.L350:
	vl	%v7,16(%r5,%r1)
	vl	%v5,16(%r5,%r11)
	vl	%v3,16(%r5,%r2)
	vl	%v10,16(%r5,%r10)
	vl	%v1,0(%r5,%r1)
	vl	%v0,0(%r5,%r11)
	vl	%v6,0(%r5,%r2)
	vl	%v2,0(%r5,%r10)
	pfd	2,752(%r3)
	vperm	%v8,%v1,%v7,%v9
	vperm	%v1,%v1,%v7,%v14
	vperm	%v7,%v0,%v5,%v9
	vperm	%v0,%v0,%v5,%v14
	vperm	%v5,%v6,%v3,%v9
	vperm	%v6,%v6,%v3,%v14
	vperm	%v3,%v2,%v10,%v9
	vperm	%v2,%v2,%v10,%v14
	vupllb	%v11,%v7
	vuplhb	%v15,%v5
	vuplhb	%v22,%v8
	vupllb	%v13,%v8
	vuplhb	%v17,%v7
	vupllb	%v12,%v5
	vuplhb	%v10,%v3
	vuplhb	%v18,%v1
	vuplhb	%v8,%v0
	vuplhb	%v5,%v6
	vupllb	%v0,%v0
	vuplhb	%v7,%v2
	vupllb	%v3,%v3
	vupllb	%v1,%v1
	vupllb	%v6,%v6
	vupllb	%v2,%v2
	vah	%v16,%v11,%v4
	vah	%v22,%v22,%v4
	vah	%v11,%v15,%v4
	vah	%v12,%v12,%v4
	vah	%v15,%v0,%v4
	vah	%v18,%v18,%v4
	vah	%v5,%v5,%v4
	vah	%v6,%v6,%v4
	vah	%v7,%v7,%v4
	vah	%v13,%v13,%v4
	vah	%v17,%v17,%v4
	vah	%v10,%v10,%v4
	vah	%v3,%v3,%v4
	vah	%v1,%v1,%v4
	vah	%v8,%v8,%v4
	vah	%v2,%v2,%v4
	aghi	%r5,32
	vperm	%v19,%v22,%v17,%v27
	vperm	%v21,%v18,%v8,%v27
	vperm	%v17,%v22,%v17,%v25
	vperm	%v20,%v11,%v10,%v27
	vperm	%v8,%v18,%v8,%v25
	vperm	%v0,%v5,%v7,%v25
	vperm	%v18,%v6,%v2,%v27
	vperm	%v10,%v11,%v10,%v25
	vperm	%v2,%v6,%v2,%v25
	vperm	%v11,%v5,%v7,%v27
	vperm	%v5,%v13,%v16,%v27
	vperm	%v7,%v12,%v3,%v27
	vperm	%v13,%v13,%v16,%v25
	vperm	%v3,%v12,%v3,%v25
	vperm	%v16,%v1,%v15,%v27
	vperm	%v1,%v1,%v15,%v25
	vperm	%v22,%v21,%v11,%v27
	vperm	%v15,%v19,%v20,%v27
	vperm	%v11,%v21,%v11,%v25
	vperm	%v12,%v17,%v10,%v27
	vperm	%v21,%v8,%v0,%v27
	vperm	%v20,%v19,%v20,%v25
	vperm	%v0,%v8,%v0,%v25
	vperm	%v10,%v17,%v10,%v25
	vperm	%v8,%v5,%v7,%v27
	vperm	%v17,%v16,%v18,%v27
	vperm	%v7,%v5,%v7,%v25
	vperm	%v18,%v16,%v18,%v25
	vperm	%v5,%v13,%v3,%v27
	vperm	%v6,%v1,%v2,%v27
	vperm	%v3,%v13,%v3,%v25
	vperm	%v2,%v1,%v2,%v25
	vperm	%v16,%v15,%v22,%v27
	vperm	%v23,%v20,%v11,%v27
	vst	%v16,0(%r3)
	vperm	%v19,%v10,%v0,%v27
	vst	%v23,32(%r3)
	vperm	%v22,%v15,%v22,%v25
	vperm	%v20,%v20,%v11,%v25
	vperm	%v15,%v12,%v21,%v27
	vperm	%v10,%v10,%v0,%v25
	vperm	%v11,%v8,%v17,%v27
	vperm	%v13,%v7,%v18,%v27
	vperm	%v1,%v5,%v6,%v27
	vperm	%v0,%v3,%v2,%v27
	vperm	%v12,%v12,%v21,%v25
	vperm	%v8,%v8,%v17,%v25
	vperm	%v7,%v7,%v18,%v25
	vperm	%v5,%v5,%v6,%v25
	vperm	%v3,%v3,%v2,%v25
	vst	%v22,16(%r3)
	vst	%v20,48(%r3)
	vst	%v15,64(%r3)
	vst	%v12,80(%r3)
	vst	%v19,96(%r3)
	vst	%v10,112(%r3)
	vst	%v11,128(%r3)
	vst	%v8,144(%r3)
	vst	%v13,160(%r3)
	vst	%v7,176(%r3)
	vst	%v1,192(%r3)
	vst	%v5,208(%r3)
	vst	%v0,224(%r3)
	vst	%v3,240(%r3)
	aghi	%r3,256
	brctg	%r9,.L350
	risbgn	%r3,%r0,28,128+55,4
	risbg	%r9,%r0,32,128+59,0
	ag	%r3,360(%r15)
	tmll	%r0,15
	je	.L352
	sllk	%r5,%r9,1
	lgfr	%r11,%r5
	llc	%r2,0(%r11,%r1)
	ahi	%r5,1
	ar	%r2,%r4
	sth	%r2,0(%r3)
	lgfr	%r5,%r5
	llc	%r2,0(%r5,%r1)
	agr	%r11,%r7
	ar	%r2,%r4
	sth	%r2,2(%r3)
	llc	%r2,0(%r11,%r1)
	agr	%r5,%r7
	ar	%r2,%r4
	sth	%r2,4(%r3)
	llc	%r2,0(%r5,%r1)
	agr	%r11,%r7
	ar	%r2,%r4
	sth	%r2,6(%r3)
	llc	%r2,0(%r11,%r1)
	agr	%r5,%r7
	ar	%r2,%r4
	sth	%r2,8(%r3)
	llc	%r0,0(%r5,%r1)
	agrk	%r2,%r1,%r7
	ar	%r0,%r4
	sth	%r0,10(%r3)
	llc	%r11,0(%r2,%r11)
	ahik	%r0,%r9,1
	ar	%r11,%r4
	sth	%r11,12(%r3)
	llc	%r5,0(%r2,%r5)
	ar	%r5,%r4
	sth	%r5,14(%r3)
	crjle	%r6,%r0,.L352
	sll	%r0,1
	lgfr	%r11,%r0
	llc	%r10,0(%r11,%r1)
	ahik	%r5,%r0,1
	ar	%r10,%r4
	sth	%r10,16(%r3)
	lgfr	%r5,%r5
	llc	%r0,0(%r5,%r1)
	agr	%r11,%r7
	ar	%r0,%r4
	sth	%r0,18(%r3)
	llc	%r0,0(%r11,%r1)
	agr	%r5,%r7
	ar	%r0,%r4
	sth	%r0,20(%r3)
	llc	%r0,0(%r5,%r1)
	agr	%r11,%r7
	ar	%r0,%r4
	sth	%r0,22(%r3)
	llc	%r0,0(%r11,%r1)
	agr	%r5,%r7
	ar	%r0,%r4
	sth	%r0,24(%r3)
	llc	%r10,0(%r5,%r1)
	ahik	%r0,%r9,2
	ar	%r10,%r4
	sth	%r10,26(%r3)
	llc	%r11,0(%r2,%r11)
	ar	%r11,%r4
	sth	%r11,28(%r3)
	llc	%r5,0(%r2,%r5)
	ar	%r5,%r4
	sth	%r5,30(%r3)
	crjle	%r6,%r0,.L352
	sll	%r0,1
	lgfr	%r11,%r0
	llc	%r10,0(%r11,%r1)
	ahik	%r5,%r0,1
	ar	%r10,%r4
	sth	%r10,32(%r3)
	lgfr	%r5,%r5
	llc	%r0,0(%r5,%r1)
	agr	%r11,%r7
	ar	%r0,%r4
	sth	%r0,34(%r3)
	llc	%r0,0(%r11,%r1)
	agr	%r5,%r7
	ar	%r0,%r4
	sth	%r0,36(%r3)
	llc	%r0,0(%r5,%r1)
	agr	%r11,%r7
	ar	%r0,%r4
	sth	%r0,38(%r3)
	llc	%r0,0(%r11,%r1)
	agr	%r5,%r7
	ar	%r0,%r4
	sth	%r0,40(%r3)
	llc	%r10,0(%r5,%r1)
	ahik	%r0,%r9,3
	ar	%r10,%r4
	sth	%r10,42(%r3)
	llc	%r11,0(%r2,%r11)
	ar	%r11,%r4
	sth	%r11,44(%r3)
	llc	%r5,0(%r2,%r5)
	ar	%r5,%r4
	sth	%r5,46(%r3)
	crjle	%r6,%r0,.L352
	sll	%r0,1
	lgfr	%r11,%r0
	llc	%r10,0(%r11,%r1)
	ahik	%r5,%r0,1
	ar	%r10,%r4
	sth	%r10,48(%r3)
	lgfr	%r5,%r5
	llc	%r0,0(%r5,%r1)
	agr	%r11,%r7
	ar	%r0,%r4
	sth	%r0,50(%r3)
	llc	%r0,0(%r11,%r1)
	agr	%r5,%r7
	ar	%r0,%r4
	sth	%r0,52(%r3)
	llc	%r0,0(%r5,%r1)
	agr	%r11,%r7
	ar	%r0,%r4
	sth	%r0,54(%r3)
	llc	%r0,0(%r11,%r1)
	agr	%r5,%r7
	ar	%r0,%r4
	sth	%r0,56(%r3)
	llc	%r10,0(%r5,%r1)
	ahik	%r0,%r9,4
	ar	%r10,%r4
	sth	%r10,58(%r3)
	llc	%r11,0(%r2,%r11)
	ar	%r11,%r4
	sth	%r11,60(%r3)
	llc	%r5,0(%r2,%r5)
	ar	%r5,%r4
	sth	%r5,62(%r3)
	crjle	%r6,%r0,.L352
	sll	%r0,1
	lgfr	%r11,%r0
	llc	%r10,0(%r11,%r1)
	ahik	%r5,%r0,1
	ar	%r10,%r4
	sth	%r10,64(%r3)
	lgfr	%r5,%r5
	llc	%r0,0(%r5,%r1)
	agr	%r11,%r7
	ar	%r0,%r4
	sth	%r0,66(%r3)
	llc	%r0,0(%r11,%r1)
	agr	%r5,%r7
	ar	%r0,%r4
	sth	%r0,68(%r3)
	llc	%r0,0(%r5,%r1)
	agr	%r11,%r7
	ar	%r0,%r4
	sth	%r0,70(%r3)
	llc	%r0,0(%r11,%r1)
	agr	%r5,%r7
	ar	%r0,%r4
	sth	%r0,72(%r3)
	llc	%r10,0(%r5,%r1)
	ahik	%r0,%r9,5
	ar	%r10,%r4
	sth	%r10,74(%r3)
	llc	%r11,0(%r2,%r11)
	ar	%r11,%r4
	sth	%r11,76(%r3)
	llc	%r5,0(%r2,%r5)
	ar	%r5,%r4
	sth	%r5,78(%r3)
	crjle	%r6,%r0,.L352
	sll	%r0,1
	lgfr	%r11,%r0
	llc	%r10,0(%r11,%r1)
	ahik	%r5,%r0,1
	ar	%r10,%r4
	sth	%r10,80(%r3)
	lgfr	%r5,%r5
	llc	%r0,0(%r5,%r1)
	agr	%r11,%r7
	ar	%r0,%r4
	sth	%r0,82(%r3)
	llc	%r0,0(%r11,%r1)
	agr	%r5,%r7
	ar	%r0,%r4
	sth	%r0,84(%r3)
	llc	%r0,0(%r5,%r1)
	agr	%r11,%r7
	ar	%r0,%r4
	sth	%r0,86(%r3)
	llc	%r0,0(%r11,%r1)
	agr	%r5,%r7
	ar	%r0,%r4
	sth	%r0,88(%r3)
	llc	%r10,0(%r5,%r1)
	ahik	%r0,%r9,6
	ar	%r10,%r4
	sth	%r10,90(%r3)
	llc	%r11,0(%r2,%r11)
	ar	%r11,%r4
	sth	%r11,92(%r3)
	llc	%r5,0(%r2,%r5)
	ar	%r5,%r4
	sth	%r5,94(%r3)
	crjle	%r6,%r0,.L352
	sll	%r0,1
	lgfr	%r11,%r0
	llc	%r10,0(%r11,%r1)
	ahik	%r5,%r0,1
	ar	%r10,%r4
	sth	%r10,96(%r3)
	lgfr	%r5,%r5
	llc	%r0,0(%r5,%r1)
	agr	%r11,%r7
	ar	%r0,%r4
	sth	%r0,98(%r3)
	llc	%r0,0(%r11,%r1)
	agr	%r5,%r7
	ar	%r0,%r4
	sth	%r0,100(%r3)
	llc	%r0,0(%r5,%r1)
	agr	%r11,%r7
	ar	%r0,%r4
	sth	%r0,102(%r3)
	llc	%r0,0(%r11,%r1)
	agr	%r5,%r7
	ar	%r0,%r4
	sth	%r0,104(%r3)
	llc	%r10,0(%r5,%r1)
	ahik	%r0,%r9,7
	ar	%r10,%r4
	sth	%r10,106(%r3)
	llc	%r11,0(%r2,%r11)
	ar	%r11,%r4
	sth	%r11,108(%r3)
	llc	%r5,0(%r2,%r5)
	ar	%r5,%r4
	sth	%r5,110(%r3)
	crjle	%r6,%r0,.L352
	sll	%r0,1
	lgfr	%r11,%r0
	llc	%r10,0(%r11,%r1)
	ahik	%r5,%r0,1
	ar	%r10,%r4
	sth	%r10,112(%r3)
	lgfr	%r5,%r5
	llc	%r0,0(%r5,%r1)
	agr	%r11,%r7
	ar	%r0,%r4
	sth	%r0,114(%r3)
	llc	%r0,0(%r11,%r1)
	agr	%r5,%r7
	ar	%r0,%r4
	sth	%r0,116(%r3)
	llc	%r0,0(%r5,%r1)
	agr	%r11,%r7
	ar	%r0,%r4
	sth	%r0,118(%r3)
	llc	%r0,0(%r11,%r1)
	agr	%r5,%r7
	ar	%r0,%r4
	sth	%r0,120(%r3)
	llc	%r10,0(%r5,%r1)
	ahik	%r0,%r9,8
	ar	%r10,%r4
	sth	%r10,122(%r3)
	llc	%r11,0(%r2,%r11)
	ar	%r11,%r4
	sth	%r11,124(%r3)
	llc	%r5,0(%r2,%r5)
	ar	%r5,%r4
	sth	%r5,126(%r3)
	crjle	%r6,%r0,.L352
	sll	%r0,1
	lgfr	%r11,%r0
	llc	%r10,0(%r11,%r1)
	ahik	%r5,%r0,1
	ar	%r10,%r4
	sth	%r10,128(%r3)
	lgfr	%r5,%r5
	llc	%r0,0(%r5,%r1)
	agr	%r11,%r7
	ar	%r0,%r4
	sth	%r0,130(%r3)
	llc	%r0,0(%r11,%r1)
	agr	%r5,%r7
	ar	%r0,%r4
	sth	%r0,132(%r3)
	llc	%r0,0(%r5,%r1)
	agr	%r11,%r7
	ar	%r0,%r4
	sth	%r0,134(%r3)
	llc	%r0,0(%r11,%r1)
	agr	%r5,%r7
	ar	%r0,%r4
	sth	%r0,136(%r3)
	llc	%r10,0(%r5,%r1)
	ahik	%r0,%r9,9
	ar	%r10,%r4
	sth	%r10,138(%r3)
	llc	%r11,0(%r2,%r11)
	ar	%r11,%r4
	sth	%r11,140(%r3)
	llc	%r5,0(%r2,%r5)
	ar	%r5,%r4
	sth	%r5,142(%r3)
	crjle	%r6,%r0,.L352
	sll	%r0,1
	lgfr	%r11,%r0
	llc	%r10,0(%r11,%r1)
	ahik	%r5,%r0,1
	ar	%r10,%r4
	sth	%r10,144(%r3)
	lgfr	%r5,%r5
	llc	%r0,0(%r5,%r1)
	agr	%r11,%r7
	ar	%r0,%r4
	sth	%r0,146(%r3)
	llc	%r0,0(%r11,%r1)
	agr	%r5,%r7
	ar	%r0,%r4
	sth	%r0,148(%r3)
	llc	%r0,0(%r5,%r1)
	agr	%r11,%r7
	ar	%r0,%r4
	sth	%r0,150(%r3)
	llc	%r0,0(%r11,%r1)
	agr	%r5,%r7
	ar	%r0,%r4
	sth	%r0,152(%r3)
	llc	%r10,0(%r5,%r1)
	ahik	%r0,%r9,10
	ar	%r10,%r4
	sth	%r10,154(%r3)
	llc	%r11,0(%r2,%r11)
	ar	%r11,%r4
	sth	%r11,156(%r3)
	llc	%r5,0(%r2,%r5)
	ar	%r5,%r4
	sth	%r5,158(%r3)
	crjle	%r6,%r0,.L352
	sll	%r0,1
	lgfr	%r11,%r0
	llc	%r10,0(%r11,%r1)
	ahik	%r5,%r0,1
	ar	%r10,%r4
	sth	%r10,160(%r3)
	lgfr	%r5,%r5
	llc	%r0,0(%r5,%r1)
	agr	%r11,%r7
	ar	%r0,%r4
	sth	%r0,162(%r3)
	llc	%r0,0(%r11,%r1)
	agr	%r5,%r7
	ar	%r0,%r4
	sth	%r0,164(%r3)
	llc	%r0,0(%r5,%r1)
	agr	%r11,%r7
	ar	%r0,%r4
	sth	%r0,166(%r3)
	llc	%r0,0(%r11,%r1)
	agr	%r5,%r7
	ar	%r0,%r4
	sth	%r0,168(%r3)
	llc	%r10,0(%r5,%r1)
	ahik	%r0,%r9,11
	ar	%r10,%r4
	sth	%r10,170(%r3)
	llc	%r11,0(%r2,%r11)
	ar	%r11,%r4
	sth	%r11,172(%r3)
	llc	%r5,0(%r2,%r5)
	ar	%r5,%r4
	sth	%r5,174(%r3)
	crjle	%r6,%r0,.L352
	sll	%r0,1
	lgfr	%r11,%r0
	llc	%r10,0(%r11,%r1)
	ahik	%r5,%r0,1
	ar	%r10,%r4
	sth	%r10,176(%r3)
	lgfr	%r5,%r5
	llc	%r0,0(%r5,%r1)
	agr	%r11,%r7
	ar	%r0,%r4
	sth	%r0,178(%r3)
	llc	%r0,0(%r11,%r1)
	agr	%r5,%r7
	ar	%r0,%r4
	sth	%r0,180(%r3)
	llc	%r0,0(%r5,%r1)
	agr	%r11,%r7
	ar	%r0,%r4
	sth	%r0,182(%r3)
	llc	%r0,0(%r11,%r1)
	agr	%r5,%r7
	ar	%r0,%r4
	sth	%r0,184(%r3)
	llc	%r10,0(%r5,%r1)
	ahik	%r0,%r9,12
	ar	%r10,%r4
	sth	%r10,186(%r3)
	llc	%r11,0(%r2,%r11)
	ar	%r11,%r4
	sth	%r11,188(%r3)
	llc	%r5,0(%r2,%r5)
	ar	%r5,%r4
	sth	%r5,190(%r3)
	crjle	%r6,%r0,.L352
	sll	%r0,1
	lgfr	%r11,%r0
	llc	%r10,0(%r11,%r1)
	ahik	%r5,%r0,1
	ar	%r10,%r4
	sth	%r10,192(%r3)
	lgfr	%r5,%r5
	llc	%r0,0(%r5,%r1)
	agr	%r11,%r7
	ar	%r0,%r4
	sth	%r0,194(%r3)
	llc	%r0,0(%r11,%r1)
	agr	%r5,%r7
	ar	%r0,%r4
	sth	%r0,196(%r3)
	llc	%r0,0(%r5,%r1)
	agr	%r11,%r7
	ar	%r0,%r4
	sth	%r0,198(%r3)
	llc	%r0,0(%r11,%r1)
	agr	%r5,%r7
	ar	%r0,%r4
	sth	%r0,200(%r3)
	llc	%r10,0(%r5,%r1)
	ahik	%r0,%r9,13
	ar	%r10,%r4
	sth	%r10,202(%r3)
	llc	%r11,0(%r2,%r11)
	ar	%r11,%r4
	sth	%r11,204(%r3)
	llc	%r5,0(%r2,%r5)
	ar	%r5,%r4
	sth	%r5,206(%r3)
	crjle	%r6,%r0,.L352
	sll	%r0,1
	lgfr	%r11,%r0
	llc	%r10,0(%r11,%r1)
	ahik	%r5,%r0,1
	ar	%r10,%r4
	sth	%r10,208(%r3)
	lgfr	%r5,%r5
	llc	%r0,0(%r5,%r1)
	agr	%r11,%r7
	ar	%r0,%r4
	sth	%r0,210(%r3)
	llc	%r0,0(%r11,%r1)
	agr	%r5,%r7
	ar	%r0,%r4
	sth	%r0,212(%r3)
	llc	%r0,0(%r5,%r1)
	agr	%r11,%r7
	ar	%r0,%r4
	sth	%r0,214(%r3)
	llc	%r0,0(%r11,%r1)
	agr	%r5,%r7
	ar	%r0,%r4
	sth	%r0,216(%r3)
	llc	%r10,0(%r5,%r1)
	ahik	%r0,%r9,14
	ar	%r10,%r4
	sth	%r10,218(%r3)
	llc	%r11,0(%r2,%r11)
	ar	%r11,%r4
	sth	%r11,220(%r3)
	llc	%r5,0(%r2,%r5)
	ar	%r5,%r4
	sth	%r5,222(%r3)
	crjle	%r6,%r0,.L352
	sll	%r0,1
	lgfr	%r11,%r0
	llc	%r10,0(%r11,%r1)
	ahi	%r0,1
	ar	%r10,%r4
	sth	%r10,224(%r3)
	lgfr	%r5,%r0
	llc	%r0,0(%r5,%r1)
	agr	%r11,%r7
	ar	%r0,%r4
	sth	%r0,226(%r3)
	llc	%r0,0(%r11,%r1)
	agr	%r5,%r7
	ar	%r0,%r4
	sth	%r0,228(%r3)
	llc	%r0,0(%r5,%r1)
	agr	%r11,%r7
	ar	%r0,%r4
	sth	%r0,230(%r3)
	llc	%r0,0(%r11,%r1)
	agr	%r5,%r7
	ar	%r0,%r4
	sth	%r0,232(%r3)
	llc	%r0,0(%r5,%r1)
	ar	%r0,%r4
	sth	%r0,234(%r3)
	llc	%r0,0(%r2,%r11)
	ar	%r0,%r4
	sth	%r0,236(%r3)
	llc	%r2,0(%r2,%r5)
	ar	%r2,%r4
	sth	%r2,238(%r3)
.L352:
	ahi	%r6,-1
	chsi	348(%r15),1
	risbgn	%r6,%r6,28,128+59,4
	la	%r2,16(%r6)
	locghinh	%r2,16
	ag	%r2,360(%r15)
.L346:
	lg	%r3,344(%r15)
	tmll	%r3,1
	je	.L356
	l	%r3,348(%r15)
	nill	%r3,65534
	lgfr	%r3,%r3
	llc	%r5,0(%r3,%r1)
	sth	%r4,2(%r2)
	ar	%r5,%r4
	sth	%r5,0(%r2)
	cijlh	%r7,1,.L442
	llc	%r5,1(%r3,%r1)
	sth	%r4,6(%r2)
	ar	%r5,%r4
	sth	%r5,4(%r2)
	llc	%r5,2(%r3,%r1)
	sth	%r4,10(%r2)
	ar	%r5,%r4
	sth	%r5,8(%r2)
	llc	%r3,3(%r3,%r1)
	sth	%r4,14(%r2)
	ar	%r3,%r4
	sth	%r3,12(%r2)
.L356:
	l	%r2,532(%r15)
	sll	%r2,2
	lgfr	%r2,%r2
	sllg	%r2,%r2,1
	ag	%r2,360(%r15)
	stg	%r2,360(%r15)
	sllg	%r2,%r7,2
	agr	%r1,%r2
	lg	%r2,400(%r15)
	tmll	%r2,8
	je	.L318
.L439:
	lg	%r3,344(%r15)
	lr	%r2,%r3
	srl	%r2,31
	ar	%r2,%r3
	sra	%r2,1
	chsi	348(%r15),1
	jle	.L358
	st	%r2,320(%r15)
	sllg	%r6,%r7,1
	llgfr	%r2,%r2
	sllg	%r3,%r2,1
	sllg	%r2,%r2,5
	locghinh	%r3,2
	locghinh	%r2,32
	agrk	%r8,%r1,%r6
	agrk	%r10,%r8,%r7
	stg	%r10,256(%r15)
	agrk	%r9,%r10,%r7
	agrk	%r10,%r6,%r7
	lgr	%r11,%r10
	stg	%r11,192(%r15)
	agr	%r11,%r3
	agrk	%r10,%r9,%r7
	sllg	%r5,%r7,2
	stg	%r5,176(%r15)
	sgrk	%r0,%r7,%r5
	ldgr	%f2,%r11
	agr	%r5,%r7
	stg	%r5,208(%r15)
	agrk	%r11,%r10,%r7
	stg	%r11,240(%r15)
	sllg	%r0,%r0,1
	agr	%r11,%r7
	stg	%r11,160(%r15)
	agr	%r0,%r11
	sllg	%r5,%r7,3
	ldgr	%f0,%r0
	sgrk	%r0,%r5,%r7
	stg	%r0,224(%r15)
	lgdr	%r0,%f2
	ag	%r2,360(%r15)
	agrk	%r5,%r1,%r0
	lg	%r0,360(%r15)
	lg	%r11,256(%r15)
	slgr	%r0,%r5
	lhi	%r0,0
	alcr	%r0,%r0
	slgrk	%r5,%r11,%r2
	lhi	%r5,0
	lg	%r11,360(%r15)
	alcr	%r5,%r5
	or	%r0,%r5
	agrk	%r5,%r3,%r6
	agr	%r5,%r1
	slgrk	%r5,%r11,%r5
	lhi	%r5,0
	alcr	%r5,%r5
	slgr	%r8,%r2
	lhi	%r8,0
	alcr	%r8,%r8
	or	%r5,%r8
	nr	%r0,%r5
	lg	%r5,176(%r15)
	chsi	348(%r15),63
	lhi	%r8,0
	lochih	%r8,1
	nr	%r0,%r8
	agr	%r5,%r3
	agr	%r5,%r1
	slgrk	%r5,%r11,%r5
	lhi	%r5,0
	lg	%r8,208(%r15)
	alcr	%r5,%r5
	slgr	%r9,%r2
	lhi	%r9,0
	alcr	%r9,%r9
	agr	%r8,%r3
	agr	%r8,%r1
	or	%r5,%r9
	nr	%r0,%r5
	slgrk	%r5,%r11,%r8
	lhi	%r8,0
	alcr	%r8,%r8
	slgrk	%r5,%r10,%r2
	lhi	%r5,0
	lg	%r10,192(%r15)
	alcr	%r5,%r5
	sllg	%r9,%r10,1
	agrk	%r10,%r9,%r3
	agr	%r10,%r1
	or	%r8,%r5
	nr	%r0,%r8
	slgrk	%r5,%r11,%r10
	lhi	%r10,0
	lgr	%r8,%r11
	lg	%r11,240(%r15)
	alcr	%r10,%r10
	lhi	%r5,0
	slgr	%r11,%r2
	lg	%r11,224(%r15)
	alcr	%r5,%r5
	agr	%r11,%r3
	agr	%r11,%r1
	or	%r10,%r5
	nr	%r0,%r10
	slgrk	%r5,%r8,%r11
	lhi	%r5,0
	alcr	%r5,%r5
	lg	%r11,160(%r15)
	slgr	%r11,%r2
	lhi	%r11,0
	alcr	%r11,%r11
	agrk	%r10,%r3,%r7
	agr	%r10,%r1
	or	%r5,%r11
	nr	%r0,%r5
	slgrk	%r5,%r8,%r10
	lhi	%r11,0
	alcr	%r11,%r11
	lgdr	%r5,%f0
	lhi	%r10,0
	slgr	%r5,%r2
	alcr	%r10,%r10
	lr	%r5,%r4
	or	%r11,%r10
	nrk	%r0,%r11,%r0
	je	.L359
	agr	%r3,%r1
	slgrk	%r0,%r8,%r3
	lhi	%r0,0
	alcr	%r0,%r0
	slgrk	%r11,%r1,%r2
	lhi	%r2,0
	alcr	%r2,%r2
	or	%r0,%r2
	je	.L359
	vl	%v2,.L446-.L445(%r13),3
	chsi	348(%r15),1
	l	%r3,320(%r15)
	vst	%v2,304(%r15),3
	vl	%v2,.L447-.L445(%r13),3
	lochinh	%r3,1
	st	%r3,328(%r15)
	risbgn	%r0,%r3,31,128+58,1
	lgdr	%r3,%f0
	stg	%r1,336(%r15)
	aghi	%r0,-32
	vst	%v2,288(%r15),3
	srlg	%r0,%r0,5
	aghik	%r5,%r0,1
	stg	%r5,160(%r15)
	agrk	%r9,%r3,%r7
	vl	%v27,.L448-.L445(%r13),3
	agrk	%r10,%r9,%r7
	vl	%v25,.L449-.L445(%r13),3
	agrk	%r11,%r10,%r7
	agrk	%r5,%r11,%r7
	la	%r8,0(%r7,%r5)
	agrk	%r0,%r8,%r7
	lgr	%r6,%r1
	lg	%r2,360(%r15)
	lgr	%r1,%r0
	lg	%r0,160(%r15)
	vlvgh	%v13,%r4,7
	vreph	%v13,%v13,7
.L362:
	vl	%v12,16(%r6)
	vl	%v1,16(%r11)
	vl	%v8,16(%r9)
	vl	%v17,0(%r6)
	vl	%v10,0(%r11)
	vl	%v0,0(%r9)
	vl	%v16,288(%r15),3
	vl	%v9,304(%r15),3
	vl	%v7,16(%r8)
	vl	%v5,16(%r3)
	vl	%v3,16(%r5)
	vl	%v6,16(%r10)
	vl	%v4,16(%r1)
	vl	%v11,0(%r8)
	vl	%v2,0(%r3)
	vl	%v19,0(%r5)
	vl	%v22,0(%r10)
	vl	%v14,0(%r1)
	vperm	%v31,%v17,%v12,%v9
	vperm	%v15,%v10,%v1,%v9
	vperm	%v17,%v17,%v12,%v16
	vperm	%v10,%v10,%v1,%v16
	vlr	%v12,%v9
	vperm	%v1,%v0,%v8,%v12
	vperm	%v0,%v0,%v8,%v16
	vperm	%v26,%v2,%v5,%v12
	vperm	%v8,%v11,%v7,%v12
	vperm	%v23,%v19,%v3,%v12
	vperm	%v21,%v22,%v6,%v12
	vperm	%v22,%v22,%v6,%v16
	vperm	%v6,%v14,%v4,%v12
	vperm	%v19,%v19,%v3,%v16
	vuplhb	%v12,%v0
	vupllb	%v0,%v0
	vst	%v0,160(%r15),3
	vuplhb	%v0,%v19
	vst	%v0,192(%r15),3
	vuplhb	%v28,%v21
	vuplhb	%v0,%v22
	vupllb	%v21,%v21
	vst	%v0,176(%r15),3
	vah	%v21,%v21,%v13
	vst	%v21,272(%r15),3
	vl	%v21,160(%r15),3
	vperm	%v11,%v11,%v7,%v16
	vperm	%v14,%v14,%v4,%v16
	vuplhb	%v7,%v26
	vuplhb	%v9,%v23
	vupllb	%v26,%v26
	vupllb	%v23,%v23
	vuplhb	%v24,%v31
	vuplhb	%v29,%v15
	vah	%v26,%v26,%v13
	vah	%v23,%v23,%v13
	vst	%v26,208(%r15),3
	vst	%v23,240(%r15),3
	vl	%v26,176(%r15),3
	vl	%v23,192(%r15),3
	vuplhb	%v0,%v14
	vah	%v29,%v29,%v13
	vuplhb	%v30,%v1
	vuplhb	%v20,%v8
	vah	%v24,%v24,%v13
	vah	%v21,%v21,%v13
	vst	%v21,224(%r15),3
	vperm	%v2,%v2,%v5,%v16
	vah	%v21,%v0,%v13
	vah	%v20,%v20,%v13
	vah	%v30,%v30,%v13
	vperm	%v0,%v24,%v29,%v27
	vperm	%v24,%v24,%v29,%v25
	aghi	%r6,32
	vupllb	%v31,%v31
	vupllb	%v15,%v15
	aghi	%r11,32
	vst	%v0,160(%r15),3
	vah	%v31,%v31,%v13
	vperm	%v0,%v30,%v20,%v27
	vperm	%v30,%v30,%v20,%v25
	vah	%v15,%v15,%v13
	vuplhb	%v3,%v6
	vuplhb	%v4,%v17
	vuplhb	%v18,%v10
	vuplhb	%v16,%v11
	vuplhb	%v5,%v2
	vupllb	%v1,%v1
	vupllb	%v8,%v8
	vlr	%v29,%v0
	vah	%v1,%v1,%v13
	vperm	%v0,%v31,%v15,%v25
	vah	%v9,%v9,%v13
	vah	%v3,%v3,%v13
	vah	%v18,%v18,%v13
	vah	%v16,%v16,%v13
	vah	%v23,%v23,%v13
	vah	%v8,%v8,%v13
	vah	%v7,%v7,%v13
	vah	%v28,%v28,%v13
	vah	%v4,%v4,%v13
	vah	%v12,%v12,%v13
	vah	%v5,%v5,%v13
	vah	%v26,%v26,%v13
	vst	%v0,192(%r15),3
	vperm	%v20,%v7,%v9,%v27
	vperm	%v0,%v1,%v8,%v27
	vperm	%v7,%v7,%v9,%v25
	vperm	%v8,%v1,%v8,%v25
	vperm	%v9,%v28,%v3,%v27
	vl	%v1,208(%r15),3
	vperm	%v28,%v28,%v3,%v25
	vperm	%v3,%v4,%v18,%v27
	vperm	%v4,%v4,%v18,%v25
	vperm	%v18,%v12,%v16,%v27
	vperm	%v12,%v12,%v16,%v25
	vperm	%v16,%v5,%v23,%v27
	vperm	%v5,%v5,%v23,%v25
	vperm	%v23,%v26,%v21,%v27
	vperm	%v26,%v26,%v21,%v25
	vl	%v21,240(%r15),3
	vupllb	%v17,%v17
	vupllb	%v10,%v10
	vst	%v0,256(%r15),3
	vah	%v17,%v17,%v13
	vah	%v10,%v10,%v13
	vperm	%v0,%v1,%v21,%v25
	vst	%v23,176(%r15),3
	vst	%v0,240(%r15),3
	vperm	%v0,%v17,%v10,%v25
	vst	%v0,208(%r15),3
	vperm	%v23,%v31,%v15,%v27
	vl	%v0,224(%r15),3
	vl	%v31,160(%r15),3
	vupllb	%v6,%v6
	vperm	%v15,%v1,%v21,%v27
	vl	%v1,272(%r15),3
	vupllb	%v11,%v11
	vupllb	%v2,%v2
	vupllb	%v19,%v19
	vupllb	%v22,%v22
	vupllb	%v14,%v14
	vah	%v11,%v11,%v13
	vah	%v19,%v19,%v13
	aghi	%r9,32
	vah	%v14,%v14,%v13
	vah	%v6,%v6,%v13
	aghi	%r8,32
	vah	%v2,%v2,%v13
	vah	%v22,%v22,%v13
	vperm	%v21,%v1,%v6,%v27
	vperm	%v6,%v1,%v6,%v25
	vperm	%v1,%v17,%v10,%v27
	vperm	%v10,%v0,%v11,%v27
	vperm	%v17,%v31,%v29,%v25
	vperm	%v0,%v0,%v11,%v25
	vperm	%v11,%v2,%v19,%v27
	vperm	%v2,%v2,%v19,%v25
	vperm	%v19,%v22,%v14,%v27
	vperm	%v22,%v22,%v14,%v25
	vperm	%v14,%v31,%v29,%v27
	vl	%v29,176(%r15),3
	vst	%v17,224(%r15),3
	aghi	%r3,32
	vperm	%v17,%v20,%v9,%v27
	vperm	%v20,%v20,%v9,%v25
	vperm	%v9,%v3,%v18,%v27
	vperm	%v3,%v3,%v18,%v25
	vperm	%v18,%v16,%v29,%v27
	vperm	%v16,%v16,%v29,%v25
	vperm	%v29,%v24,%v30,%v27
	vperm	%v30,%v24,%v30,%v25
	vl	%v24,256(%r15),3
	vst	%v30,160(%r15),3
	aghi	%r5,32
	vperm	%v30,%v4,%v12,%v27
	vperm	%v4,%v4,%v12,%v25
	vperm	%v12,%v5,%v26,%v27
	vperm	%v5,%v5,%v26,%v25
	vperm	%v26,%v23,%v24,%v27
	vperm	%v24,%v23,%v24,%v25
	vl	%v23,192(%r15),3
	vst	%v24,176(%r15),3
	aghi	%r10,32
	vperm	%v24,%v1,%v10,%v27
	vperm	%v31,%v7,%v28,%v27
	vperm	%v1,%v1,%v10,%v25
	vperm	%v7,%v7,%v28,%v25
	vperm	%v10,%v11,%v19,%v27
	vperm	%v28,%v15,%v21,%v27
	vperm	%v11,%v11,%v19,%v25
	vperm	%v15,%v15,%v21,%v25
	vl	%v19,240(%r15),3
	vperm	%v21,%v23,%v8,%v27
	vperm	%v23,%v23,%v8,%v25
	vl	%v8,208(%r15),3
	vst	%v23,192(%r15),3
	vperm	%v23,%v19,%v6,%v27
	vperm	%v6,%v19,%v6,%v25
	vperm	%v19,%v8,%v0,%v27
	vperm	%v0,%v8,%v0,%v25
	vperm	%v8,%v2,%v22,%v27
	vst	%v0,208(%r15),3
	vl	%v0,224(%r15),3
	aghi	%r1,32
	vperm	%v2,%v2,%v22,%v25
	vperm	%v22,%v14,%v17,%v27
	vperm	%v14,%v14,%v17,%v25
	vperm	%v17,%v9,%v18,%v27
	vperm	%v9,%v9,%v18,%v25
	vperm	%v18,%v0,%v20,%v27
	vperm	%v20,%v0,%v20,%v25
	vperm	%v0,%v3,%v16,%v27
	vst	%v0,224(%r15),3
	vl	%v0,160(%r15),3
	vperm	%v3,%v3,%v16,%v25
	vperm	%v16,%v29,%v31,%v27
	vperm	%v31,%v29,%v31,%v25
	vperm	%v29,%v30,%v12,%v27
	vperm	%v12,%v30,%v12,%v25
	vperm	%v30,%v0,%v7,%v27
	vperm	%v7,%v0,%v7,%v25
	vperm	%v0,%v4,%v5,%v27
	vst	%v0,160(%r15),3
	vl	%v0,176(%r15),3
	vperm	%v4,%v4,%v5,%v25
	vperm	%v5,%v26,%v28,%v27
	vperm	%v28,%v26,%v28,%v25
	vperm	%v26,%v24,%v10,%v27
	vperm	%v10,%v24,%v10,%v25
	vperm	%v24,%v0,%v15,%v27
	vperm	%v15,%v0,%v15,%v25
	vperm	%v0,%v1,%v11,%v27
	vst	%v0,176(%r15),3
	vl	%v0,192(%r15),3
	vperm	%v1,%v1,%v11,%v25
	vperm	%v11,%v21,%v23,%v27
	vperm	%v23,%v21,%v23,%v25
	vperm	%v21,%v19,%v8,%v27
	vperm	%v8,%v19,%v8,%v25
	vperm	%v19,%v0,%v6,%v27
	vperm	%v6,%v0,%v6,%v25
	vl	%v0,208(%r15),3
	vperm	%v0,%v0,%v2,%v27
	vst	%v0,192(%r15),3
	vl	%v0,208(%r15),3
	vperm	%v0,%v0,%v2,%v25
	vperm	%v2,%v22,%v17,%v27
	vperm	%v22,%v22,%v17,%v25
	vperm	%v17,%v14,%v9,%v27
	vperm	%v14,%v14,%v9,%v25
	vl	%v9,224(%r15),3
	vst	%v17,208(%r15),3
	vst	%v2,0(%r2)
	vperm	%v17,%v18,%v9,%v27
	vperm	%v18,%v18,%v9,%v25
	vst	%v17,224(%r15),3
	vl	%v2,208(%r15),3
	vst	%v22,16(%r2)
	vperm	%v9,%v20,%v3,%v27
	vperm	%v3,%v20,%v3,%v25
	vst	%v9,240(%r15),3
	vst	%v2,32(%r2)
	vl	%v2,224(%r15),3
	vperm	%v20,%v31,%v12,%v27
	vperm	%v17,%v5,%v26,%v27
	vst	%v20,256(%r15),3
	vperm	%v5,%v5,%v26,%v25
	vl	%v26,176(%r15),3
	vst	%v2,64(%r2)
	vl	%v2,240(%r15),3
	vperm	%v9,%v16,%v29,%v27
	vperm	%v31,%v31,%v12,%v25
	vperm	%v16,%v16,%v29,%v25
	vperm	%v29,%v24,%v26,%v27
	vl	%v12,160(%r15),3
	vperm	%v24,%v24,%v26,%v25
	vperm	%v26,%v15,%v1,%v27
	vperm	%v1,%v15,%v1,%v25
	vperm	%v15,%v23,%v8,%v27
	vperm	%v8,%v23,%v8,%v25
	vl	%v23,192(%r15),3
	vst	%v2,96(%r2)
	vl	%v2,256(%r15),3
	vperm	%v20,%v30,%v12,%v27
	vperm	%v30,%v30,%v12,%v25
	vperm	%v12,%v7,%v4,%v27
	vperm	%v4,%v7,%v4,%v25
	vperm	%v7,%v28,%v10,%v27
	vperm	%v10,%v28,%v10,%v25
	vperm	%v28,%v11,%v21,%v27
	vperm	%v11,%v11,%v21,%v25
	vperm	%v21,%v19,%v23,%v27
	vperm	%v19,%v19,%v23,%v25
	vperm	%v23,%v6,%v0,%v27
	vperm	%v0,%v6,%v0,%v25
	vst	%v14,48(%r2)
	vst	%v18,80(%r2)
	vst	%v3,112(%r2)
	vst	%v9,128(%r2)
	vst	%v16,144(%r2)
	vst	%v2,160(%r2)
	vst	%v31,176(%r2)
	vst	%v20,192(%r2)
	vst	%v30,208(%r2)
	vst	%v12,224(%r2)
	vst	%v4,240(%r2)
	vst	%v17,256(%r2)
	vst	%v5,272(%r2)
	vst	%v7,288(%r2)
	vst	%v10,304(%r2)
	vst	%v29,320(%r2)
	vst	%v24,336(%r2)
	vst	%v26,352(%r2)
	vst	%v1,368(%r2)
	vst	%v28,384(%r2)
	vst	%v11,400(%r2)
	vst	%v15,416(%r2)
	vst	%v8,432(%r2)
	vst	%v21,448(%r2)
	vst	%v19,464(%r2)
	vst	%v23,480(%r2)
	vst	%v0,496(%r2)
	aghi	%r2,512
	brctg	%r0,.L362
	l	%r2,328(%r15)
	lg	%r1,336(%r15)
	lgr	%r3,%r2
	risbg	%r11,%r2,32,128+59,0
	risbgn	%r3,%r3,27,128+54,5
	ag	%r3,360(%r15)
	tmll	%r2,15
	je	.L364
	sllk	%r2,%r11,1
	lgfr	%r10,%r2
	llc	%r0,0(%r10,%r1)
	ahik	%r5,%r2,1
	ark	%r2,%r0,%r4
	sth	%r2,0(%r3)
	lgfr	%r5,%r5
	llc	%r2,0(%r5,%r1)
	agr	%r10,%r7
	ar	%r2,%r4
	sth	%r2,2(%r3)
	llc	%r2,0(%r10,%r1)
	agr	%r5,%r7
	ar	%r2,%r4
	sth	%r2,4(%r3)
	llc	%r2,0(%r5,%r1)
	agr	%r10,%r7
	ar	%r2,%r4
	sth	%r2,6(%r3)
	llc	%r2,0(%r10,%r1)
	agr	%r5,%r7
	ar	%r2,%r4
	sth	%r2,8(%r3)
	llc	%r2,0(%r5,%r1)
	agr	%r10,%r7
	ar	%r2,%r4
	sth	%r2,10(%r3)
	llc	%r2,0(%r10,%r1)
	agr	%r5,%r7
	ar	%r2,%r4
	sth	%r2,12(%r3)
	llc	%r2,0(%r5,%r1)
	agr	%r10,%r7
	ar	%r2,%r4
	sth	%r2,14(%r3)
	llc	%r2,0(%r10,%r1)
	agr	%r5,%r7
	ar	%r2,%r4
	sth	%r2,16(%r3)
	llc	%r2,0(%r5,%r1)
	agr	%r10,%r7
	ar	%r2,%r4
	sth	%r2,18(%r3)
	llc	%r2,0(%r10,%r1)
	agr	%r5,%r7
	ar	%r2,%r4
	sth	%r2,20(%r3)
	llc	%r2,0(%r5,%r1)
	agr	%r10,%r7
	ar	%r2,%r4
	sth	%r2,22(%r3)
	llc	%r2,0(%r10,%r1)
	agr	%r5,%r7
	ar	%r2,%r4
	sth	%r2,24(%r3)
	llc	%r0,0(%r5,%r1)
	agrk	%r2,%r1,%r7
	ar	%r0,%r4
	sth	%r0,26(%r3)
	llc	%r10,0(%r2,%r10)
	l	%r8,320(%r15)
	ar	%r10,%r4
	sth	%r10,28(%r3)
	llc	%r5,0(%r2,%r5)
	ahik	%r0,%r11,1
	ar	%r5,%r4
	sth	%r5,30(%r3)
	crjle	%r8,%r0,.L364
	sllk	%r5,%r0,1
	lgfr	%r10,%r5
	llc	%r0,0(%r10,%r1)
	ahi	%r5,1
	ar	%r0,%r4
	sth	%r0,32(%r3)
	lgfr	%r5,%r5
	llc	%r0,0(%r5,%r1)
	agr	%r10,%r7
	ar	%r0,%r4
	sth	%r0,34(%r3)
	llc	%r0,0(%r10,%r1)
	agr	%r5,%r7
	ar	%r0,%r4
	sth	%r0,36(%r3)
	llc	%r0,0(%r5,%r1)
	agr	%r10,%r7
	ar	%r0,%r4
	sth	%r0,38(%r3)
	llc	%r0,0(%r10,%r1)
	agr	%r5,%r7
	ar	%r0,%r4
	sth	%r0,40(%r3)
	llc	%r0,0(%r5,%r1)
	agr	%r10,%r7
	ar	%r0,%r4
	sth	%r0,42(%r3)
	llc	%r0,0(%r10,%r1)
	agr	%r5,%r7
	ar	%r0,%r4
	sth	%r0,44(%r3)
	llc	%r0,0(%r5,%r1)
	agr	%r10,%r7
	ar	%r0,%r4
	sth	%r0,46(%r3)
	llc	%r0,0(%r10,%r1)
	agr	%r5,%r7
	ar	%r0,%r4
	sth	%r0,48(%r3)
	llc	%r0,0(%r5,%r1)
	agr	%r10,%r7
	ar	%r0,%r4
	sth	%r0,50(%r3)
	llc	%r0,0(%r10,%r1)
	agr	%r5,%r7
	ar	%r0,%r4
	sth	%r0,52(%r3)
	llc	%r0,0(%r5,%r1)
	agr	%r10,%r7
	ar	%r0,%r4
	sth	%r0,54(%r3)
	llc	%r0,0(%r10,%r1)
	agr	%r5,%r7
	ar	%r0,%r4
	sth	%r0,56(%r3)
	llc	%r9,0(%r5,%r1)
	ahik	%r0,%r11,2
	ar	%r9,%r4
	sth	%r9,58(%r3)
	llc	%r10,0(%r2,%r10)
	ar	%r10,%r4
	sth	%r10,60(%r3)
	llc	%r5,0(%r2,%r5)
	ar	%r5,%r4
	sth	%r5,62(%r3)
	crjle	%r8,%r0,.L364
	sll	%r0,1
	lgfr	%r10,%r0
	llc	%r9,0(%r10,%r1)
	ahik	%r5,%r0,1
	ar	%r9,%r4
	sth	%r9,64(%r3)
	lgfr	%r5,%r5
	llc	%r0,0(%r5,%r1)
	agr	%r10,%r7
	ar	%r0,%r4
	sth	%r0,66(%r3)
	llc	%r0,0(%r10,%r1)
	agr	%r5,%r7
	ar	%r0,%r4
	sth	%r0,68(%r3)
	llc	%r0,0(%r5,%r1)
	agr	%r10,%r7
	ar	%r0,%r4
	sth	%r0,70(%r3)
	llc	%r0,0(%r10,%r1)
	agr	%r5,%r7
	ar	%r0,%r4
	sth	%r0,72(%r3)
	llc	%r0,0(%r5,%r1)
	agr	%r10,%r7
	ar	%r0,%r4
	sth	%r0,74(%r3)
	llc	%r0,0(%r10,%r1)
	agr	%r5,%r7
	ar	%r0,%r4
	sth	%r0,76(%r3)
	llc	%r0,0(%r5,%r1)
	agr	%r10,%r7
	ar	%r0,%r4
	sth	%r0,78(%r3)
	llc	%r0,0(%r10,%r1)
	agr	%r5,%r7
	ar	%r0,%r4
	sth	%r0,80(%r3)
	llc	%r0,0(%r5,%r1)
	agr	%r10,%r7
	ar	%r0,%r4
	sth	%r0,82(%r3)
	llc	%r0,0(%r10,%r1)
	agr	%r5,%r7
	ar	%r0,%r4
	sth	%r0,84(%r3)
	llc	%r0,0(%r5,%r1)
	agr	%r10,%r7
	ar	%r0,%r4
	sth	%r0,86(%r3)
	llc	%r0,0(%r10,%r1)
	agr	%r5,%r7
	ar	%r0,%r4
	sth	%r0,88(%r3)
	llc	%r9,0(%r5,%r1)
	ahik	%r0,%r11,3
	ar	%r9,%r4
	sth	%r9,90(%r3)
	llc	%r10,0(%r2,%r10)
	ar	%r10,%r4
	sth	%r10,92(%r3)
	llc	%r5,0(%r2,%r5)
	ar	%r5,%r4
	sth	%r5,94(%r3)
	crjle	%r8,%r0,.L364
	sll	%r0,1
	lgfr	%r10,%r0
	llc	%r9,0(%r10,%r1)
	ahik	%r5,%r0,1
	ar	%r9,%r4
	sth	%r9,96(%r3)
	lgfr	%r5,%r5
	llc	%r0,0(%r5,%r1)
	agr	%r10,%r7
	ar	%r0,%r4
	sth	%r0,98(%r3)
	llc	%r0,0(%r10,%r1)
	agr	%r5,%r7
	ar	%r0,%r4
	sth	%r0,100(%r3)
	llc	%r0,0(%r5,%r1)
	agr	%r10,%r7
	ar	%r0,%r4
	sth	%r0,102(%r3)
	llc	%r0,0(%r10,%r1)
	agr	%r5,%r7
	ar	%r0,%r4
	sth	%r0,104(%r3)
	llc	%r0,0(%r5,%r1)
	agr	%r10,%r7
	ar	%r0,%r4
	sth	%r0,106(%r3)
	llc	%r0,0(%r10,%r1)
	agr	%r5,%r7
	ar	%r0,%r4
	sth	%r0,108(%r3)
	llc	%r0,0(%r5,%r1)
	agr	%r10,%r7
	ar	%r0,%r4
	sth	%r0,110(%r3)
	llc	%r0,0(%r10,%r1)
	agr	%r5,%r7
	ar	%r0,%r4
	sth	%r0,112(%r3)
	llc	%r0,0(%r5,%r1)
	agr	%r10,%r7
	ar	%r0,%r4
	sth	%r0,114(%r3)
	llc	%r0,0(%r10,%r1)
	agr	%r5,%r7
	ar	%r0,%r4
	sth	%r0,116(%r3)
	llc	%r0,0(%r5,%r1)
	agr	%r10,%r7
	ar	%r0,%r4
	sth	%r0,118(%r3)
	llc	%r0,0(%r10,%r1)
	agr	%r5,%r7
	ar	%r0,%r4
	sth	%r0,120(%r3)
	llc	%r9,0(%r5,%r1)
	ahik	%r0,%r11,4
	ar	%r9,%r4
	sth	%r9,122(%r3)
	llc	%r10,0(%r2,%r10)
	ar	%r10,%r4
	sth	%r10,124(%r3)
	llc	%r5,0(%r2,%r5)
	ar	%r5,%r4
	sth	%r5,126(%r3)
	crjle	%r8,%r0,.L364
	sll	%r0,1
	lgfr	%r10,%r0
	llc	%r9,0(%r10,%r1)
	ahik	%r5,%r0,1
	ar	%r9,%r4
	sth	%r9,128(%r3)
	lgfr	%r5,%r5
	llc	%r0,0(%r5,%r1)
	agr	%r10,%r7
	ar	%r0,%r4
	sth	%r0,130(%r3)
	llc	%r0,0(%r10,%r1)
	agr	%r5,%r7
	ar	%r0,%r4
	sth	%r0,132(%r3)
	llc	%r0,0(%r5,%r1)
	agr	%r10,%r7
	ar	%r0,%r4
	sth	%r0,134(%r3)
	llc	%r0,0(%r10,%r1)
	agr	%r5,%r7
	ar	%r0,%r4
	sth	%r0,136(%r3)
	llc	%r0,0(%r5,%r1)
	agr	%r10,%r7
	ar	%r0,%r4
	sth	%r0,138(%r3)
	llc	%r0,0(%r10,%r1)
	agr	%r5,%r7
	ar	%r0,%r4
	sth	%r0,140(%r3)
	llc	%r0,0(%r5,%r1)
	agr	%r10,%r7
	ar	%r0,%r4
	sth	%r0,142(%r3)
	llc	%r0,0(%r10,%r1)
	agr	%r5,%r7
	ar	%r0,%r4
	sth	%r0,144(%r3)
	llc	%r0,0(%r5,%r1)
	agr	%r10,%r7
	ar	%r0,%r4
	sth	%r0,146(%r3)
	llc	%r0,0(%r10,%r1)
	agr	%r5,%r7
	ar	%r0,%r4
	sth	%r0,148(%r3)
	llc	%r0,0(%r5,%r1)
	agr	%r10,%r7
	ar	%r0,%r4
	sth	%r0,150(%r3)
	llc	%r0,0(%r10,%r1)
	agr	%r5,%r7
	ar	%r0,%r4
	sth	%r0,152(%r3)
	llc	%r9,0(%r5,%r1)
	ahik	%r0,%r11,5
	ar	%r9,%r4
	sth	%r9,154(%r3)
	llc	%r10,0(%r2,%r10)
	ar	%r10,%r4
	sth	%r10,156(%r3)
	llc	%r5,0(%r2,%r5)
	ar	%r5,%r4
	sth	%r5,158(%r3)
	crjle	%r8,%r0,.L364
	sll	%r0,1
	lgfr	%r10,%r0
	llc	%r9,0(%r10,%r1)
	ahik	%r5,%r0,1
	ar	%r9,%r4
	sth	%r9,160(%r3)
	lgfr	%r5,%r5
	llc	%r0,0(%r5,%r1)
	agr	%r10,%r7
	ar	%r0,%r4
	sth	%r0,162(%r3)
	llc	%r0,0(%r10,%r1)
	agr	%r5,%r7
	ar	%r0,%r4
	sth	%r0,164(%r3)
	llc	%r0,0(%r5,%r1)
	agr	%r10,%r7
	ar	%r0,%r4
	sth	%r0,166(%r3)
	llc	%r0,0(%r10,%r1)
	agr	%r5,%r7
	ar	%r0,%r4
	sth	%r0,168(%r3)
	llc	%r0,0(%r5,%r1)
	agr	%r10,%r7
	ar	%r0,%r4
	sth	%r0,170(%r3)
	llc	%r0,0(%r10,%r1)
	agr	%r5,%r7
	ar	%r0,%r4
	sth	%r0,172(%r3)
	llc	%r0,0(%r5,%r1)
	agr	%r10,%r7
	ar	%r0,%r4
	sth	%r0,174(%r3)
	llc	%r0,0(%r10,%r1)
	agr	%r5,%r7
	ar	%r0,%r4
	sth	%r0,176(%r3)
	llc	%r0,0(%r5,%r1)
	agr	%r10,%r7
	ar	%r0,%r4
	sth	%r0,178(%r3)
	llc	%r0,0(%r10,%r1)
	agr	%r5,%r7
	ar	%r0,%r4
	sth	%r0,180(%r3)
	llc	%r0,0(%r5,%r1)
	agr	%r10,%r7
	ar	%r0,%r4
	sth	%r0,182(%r3)
	llc	%r0,0(%r10,%r1)
	agr	%r5,%r7
	ar	%r0,%r4
	sth	%r0,184(%r3)
	llc	%r9,0(%r5,%r1)
	ahik	%r0,%r11,6
	ar	%r9,%r4
	sth	%r9,186(%r3)
	llc	%r10,0(%r2,%r10)
	ar	%r10,%r4
	sth	%r10,188(%r3)
	llc	%r5,0(%r2,%r5)
	ar	%r5,%r4
	sth	%r5,190(%r3)
	crjle	%r8,%r0,.L364
	sll	%r0,1
	lgfr	%r10,%r0
	llc	%r9,0(%r10,%r1)
	ahik	%r5,%r0,1
	ar	%r9,%r4
	sth	%r9,192(%r3)
	lgfr	%r5,%r5
	llc	%r0,0(%r5,%r1)
	agr	%r10,%r7
	ar	%r0,%r4
	sth	%r0,194(%r3)
	llc	%r0,0(%r10,%r1)
	agr	%r5,%r7
	ar	%r0,%r4
	sth	%r0,196(%r3)
	llc	%r0,0(%r5,%r1)
	agr	%r10,%r7
	ar	%r0,%r4
	sth	%r0,198(%r3)
	llc	%r0,0(%r10,%r1)
	agr	%r5,%r7
	ar	%r0,%r4
	sth	%r0,200(%r3)
	llc	%r0,0(%r5,%r1)
	agr	%r10,%r7
	ar	%r0,%r4
	sth	%r0,202(%r3)
	llc	%r0,0(%r10,%r1)
	agr	%r5,%r7
	ar	%r0,%r4
	sth	%r0,204(%r3)
	llc	%r0,0(%r5,%r1)
	agr	%r10,%r7
	ar	%r0,%r4
	sth	%r0,206(%r3)
	llc	%r0,0(%r10,%r1)
	agr	%r5,%r7
	ar	%r0,%r4
	sth	%r0,208(%r3)
	llc	%r0,0(%r5,%r1)
	agr	%r10,%r7
	ar	%r0,%r4
	sth	%r0,210(%r3)
	llc	%r0,0(%r10,%r1)
	agr	%r5,%r7
	ar	%r0,%r4
	sth	%r0,212(%r3)
	llc	%r0,0(%r5,%r1)
	agr	%r10,%r7
	ar	%r0,%r4
	sth	%r0,214(%r3)
	llc	%r0,0(%r10,%r1)
	agr	%r5,%r7
	ar	%r0,%r4
	sth	%r0,216(%r3)
	llc	%r9,0(%r5,%r1)
	ahik	%r0,%r11,7
	ar	%r9,%r4
	sth	%r9,218(%r3)
	llc	%r10,0(%r2,%r10)
	ar	%r10,%r4
	sth	%r10,220(%r3)
	llc	%r5,0(%r2,%r5)
	ar	%r5,%r4
	sth	%r5,222(%r3)
	crjle	%r8,%r0,.L364
	sll	%r0,1
	lgfr	%r10,%r0
	llc	%r9,0(%r10,%r1)
	ahik	%r5,%r0,1
	ar	%r9,%r4
	sth	%r9,224(%r3)
	lgfr	%r5,%r5
	llc	%r0,0(%r5,%r1)
	agr	%r10,%r7
	ar	%r0,%r4
	sth	%r0,226(%r3)
	llc	%r0,0(%r10,%r1)
	agr	%r5,%r7
	ar	%r0,%r4
	sth	%r0,228(%r3)
	llc	%r0,0(%r5,%r1)
	agr	%r10,%r7
	ar	%r0,%r4
	sth	%r0,230(%r3)
	llc	%r0,0(%r10,%r1)
	agr	%r5,%r7
	ar	%r0,%r4
	sth	%r0,232(%r3)
	llc	%r0,0(%r5,%r1)
	agr	%r10,%r7
	ar	%r0,%r4
	sth	%r0,234(%r3)
	llc	%r0,0(%r10,%r1)
	agr	%r5,%r7
	ar	%r0,%r4
	sth	%r0,236(%r3)
	llc	%r0,0(%r5,%r1)
	agr	%r10,%r7
	ar	%r0,%r4
	sth	%r0,238(%r3)
	llc	%r0,0(%r10,%r1)
	agr	%r5,%r7
	ar	%r0,%r4
	sth	%r0,240(%r3)
	llc	%r0,0(%r5,%r1)
	agr	%r10,%r7
	ar	%r0,%r4
	sth	%r0,242(%r3)
	llc	%r0,0(%r10,%r1)
	agr	%r5,%r7
	ar	%r0,%r4
	sth	%r0,244(%r3)
	llc	%r0,0(%r5,%r1)
	agr	%r10,%r7
	ar	%r0,%r4
	sth	%r0,246(%r3)
	llc	%r0,0(%r10,%r1)
	agr	%r5,%r7
	ar	%r0,%r4
	sth	%r0,248(%r3)
	llc	%r9,0(%r5,%r1)
	ahik	%r0,%r11,8
	ar	%r9,%r4
	sth	%r9,250(%r3)
	llc	%r10,0(%r2,%r10)
	ar	%r10,%r4
	sth	%r10,252(%r3)
	llc	%r5,0(%r2,%r5)
	ar	%r5,%r4
	sth	%r5,254(%r3)
	crjle	%r8,%r0,.L364
	sll	%r0,1
	lgfr	%r10,%r0
	llc	%r9,0(%r10,%r1)
	ahik	%r5,%r0,1
	ar	%r9,%r4
	sth	%r9,256(%r3)
	lgfr	%r5,%r5
	llc	%r0,0(%r5,%r1)
	agr	%r10,%r7
	ar	%r0,%r4
	sth	%r0,258(%r3)
	llc	%r0,0(%r10,%r1)
	agr	%r5,%r7
	ar	%r0,%r4
	sth	%r0,260(%r3)
	llc	%r0,0(%r5,%r1)
	agr	%r10,%r7
	ar	%r0,%r4
	sth	%r0,262(%r3)
	llc	%r0,0(%r10,%r1)
	agr	%r5,%r7
	ar	%r0,%r4
	sth	%r0,264(%r3)
	llc	%r0,0(%r5,%r1)
	agr	%r10,%r7
	ar	%r0,%r4
	sth	%r0,266(%r3)
	llc	%r0,0(%r10,%r1)
	agr	%r5,%r7
	ar	%r0,%r4
	sth	%r0,268(%r3)
	llc	%r0,0(%r5,%r1)
	agr	%r10,%r7
	ar	%r0,%r4
	sth	%r0,270(%r3)
	llc	%r0,0(%r10,%r1)
	agr	%r5,%r7
	ar	%r0,%r4
	sth	%r0,272(%r3)
	llc	%r0,0(%r5,%r1)
	agr	%r10,%r7
	ar	%r0,%r4
	sth	%r0,274(%r3)
	llc	%r0,0(%r10,%r1)
	agr	%r5,%r7
	ar	%r0,%r4
	sth	%r0,276(%r3)
	llc	%r0,0(%r5,%r1)
	agr	%r10,%r7
	ar	%r0,%r4
	sth	%r0,278(%r3)
	llc	%r0,0(%r10,%r1)
	agr	%r5,%r7
	ar	%r0,%r4
	sth	%r0,280(%r3)
	llc	%r9,0(%r5,%r1)
	ahik	%r0,%r11,9
	ar	%r9,%r4
	sth	%r9,282(%r3)
	llc	%r10,0(%r2,%r10)
	ar	%r10,%r4
	sth	%r10,284(%r3)
	llc	%r5,0(%r2,%r5)
	ar	%r5,%r4
	sth	%r5,286(%r3)
	crjle	%r8,%r0,.L364
	sll	%r0,1
	lgfr	%r10,%r0
	llc	%r9,0(%r10,%r1)
	ahik	%r5,%r0,1
	ar	%r9,%r4
	sth	%r9,288(%r3)
	lgfr	%r5,%r5
	llc	%r0,0(%r5,%r1)
	agr	%r10,%r7
	ar	%r0,%r4
	sth	%r0,290(%r3)
	llc	%r0,0(%r10,%r1)
	agr	%r5,%r7
	ar	%r0,%r4
	sth	%r0,292(%r3)
	llc	%r0,0(%r5,%r1)
	agr	%r10,%r7
	ar	%r0,%r4
	sth	%r0,294(%r3)
	llc	%r0,0(%r10,%r1)
	agr	%r5,%r7
	ar	%r0,%r4
	sth	%r0,296(%r3)
	llc	%r0,0(%r5,%r1)
	agr	%r10,%r7
	ar	%r0,%r4
	sth	%r0,298(%r3)
	llc	%r0,0(%r10,%r1)
	agr	%r5,%r7
	ar	%r0,%r4
	sth	%r0,300(%r3)
	llc	%r0,0(%r5,%r1)
	agr	%r10,%r7
	ar	%r0,%r4
	sth	%r0,302(%r3)
	llc	%r0,0(%r10,%r1)
	agr	%r5,%r7
	ar	%r0,%r4
	sth	%r0,304(%r3)
	llc	%r0,0(%r5,%r1)
	agr	%r10,%r7
	ar	%r0,%r4
	sth	%r0,306(%r3)
	llc	%r0,0(%r10,%r1)
	agr	%r5,%r7
	ar	%r0,%r4
	sth	%r0,308(%r3)
	llc	%r0,0(%r5,%r1)
	agr	%r10,%r7
	ar	%r0,%r4
	sth	%r0,310(%r3)
	llc	%r0,0(%r10,%r1)
	agr	%r5,%r7
	ar	%r0,%r4
	sth	%r0,312(%r3)
	llc	%r9,0(%r5,%r1)
	ahik	%r0,%r11,10
	ar	%r9,%r4
	sth	%r9,314(%r3)
	llc	%r10,0(%r2,%r10)
	ar	%r10,%r4
	sth	%r10,316(%r3)
	llc	%r5,0(%r2,%r5)
	ar	%r5,%r4
	sth	%r5,318(%r3)
	crjle	%r8,%r0,.L364
	sll	%r0,1
	lgfr	%r10,%r0
	llc	%r9,0(%r10,%r1)
	ahik	%r5,%r0,1
	ar	%r9,%r4
	sth	%r9,320(%r3)
	lgfr	%r5,%r5
	llc	%r0,0(%r5,%r1)
	agr	%r10,%r7
	ar	%r0,%r4
	sth	%r0,322(%r3)
	llc	%r0,0(%r10,%r1)
	agr	%r5,%r7
	ar	%r0,%r4
	sth	%r0,324(%r3)
	llc	%r0,0(%r5,%r1)
	agr	%r10,%r7
	ar	%r0,%r4
	sth	%r0,326(%r3)
	llc	%r0,0(%r10,%r1)
	agr	%r5,%r7
	ar	%r0,%r4
	sth	%r0,328(%r3)
	llc	%r0,0(%r5,%r1)
	agr	%r10,%r7
	ar	%r0,%r4
	sth	%r0,330(%r3)
	llc	%r0,0(%r10,%r1)
	agr	%r5,%r7
	ar	%r0,%r4
	sth	%r0,332(%r3)
	llc	%r0,0(%r5,%r1)
	agr	%r10,%r7
	ar	%r0,%r4
	sth	%r0,334(%r3)
	llc	%r0,0(%r10,%r1)
	agr	%r5,%r7
	ar	%r0,%r4
	sth	%r0,336(%r3)
	llc	%r0,0(%r5,%r1)
	agr	%r10,%r7
	ar	%r0,%r4
	sth	%r0,338(%r3)
	llc	%r0,0(%r10,%r1)
	agr	%r5,%r7
	ar	%r0,%r4
	sth	%r0,340(%r3)
	llc	%r0,0(%r5,%r1)
	agr	%r10,%r7
	ar	%r0,%r4
	sth	%r0,342(%r3)
	llc	%r0,0(%r10,%r1)
	agr	%r5,%r7
	ar	%r0,%r4
	sth	%r0,344(%r3)
	llc	%r9,0(%r5,%r1)
	ahik	%r0,%r11,11
	ar	%r9,%r4
	sth	%r9,346(%r3)
	llc	%r10,0(%r2,%r10)
	ar	%r10,%r4
	sth	%r10,348(%r3)
	llc	%r5,0(%r2,%r5)
	ar	%r5,%r4
	sth	%r5,350(%r3)
	crjle	%r8,%r0,.L364
	sll	%r0,1
	lgfr	%r10,%r0
	llc	%r9,0(%r10,%r1)
	ahik	%r5,%r0,1
	ar	%r9,%r4
	sth	%r9,352(%r3)
	lgfr	%r5,%r5
	llc	%r0,0(%r5,%r1)
	agr	%r10,%r7
	ar	%r0,%r4
	sth	%r0,354(%r3)
	llc	%r0,0(%r10,%r1)
	agr	%r5,%r7
	ar	%r0,%r4
	sth	%r0,356(%r3)
	llc	%r0,0(%r5,%r1)
	agr	%r10,%r7
	ar	%r0,%r4
	sth	%r0,358(%r3)
	llc	%r0,0(%r10,%r1)
	agr	%r5,%r7
	ar	%r0,%r4
	sth	%r0,360(%r3)
	llc	%r0,0(%r5,%r1)
	agr	%r10,%r7
	ar	%r0,%r4
	sth	%r0,362(%r3)
	llc	%r0,0(%r10,%r1)
	agr	%r5,%r7
	ar	%r0,%r4
	sth	%r0,364(%r3)
	llc	%r0,0(%r5,%r1)
	agr	%r10,%r7
	ar	%r0,%r4
	sth	%r0,366(%r3)
	llc	%r0,0(%r10,%r1)
	agr	%r5,%r7
	ar	%r0,%r4
	sth	%r0,368(%r3)
	llc	%r0,0(%r5,%r1)
	agr	%r10,%r7
	ar	%r0,%r4
	sth	%r0,370(%r3)
	llc	%r0,0(%r10,%r1)
	agr	%r5,%r7
	ar	%r0,%r4
	sth	%r0,372(%r3)
	llc	%r0,0(%r5,%r1)
	agr	%r10,%r7
	ar	%r0,%r4
	sth	%r0,374(%r3)
	llc	%r0,0(%r10,%r1)
	agr	%r5,%r7
	ar	%r0,%r4
	sth	%r0,376(%r3)
	llc	%r9,0(%r5,%r1)
	ahik	%r0,%r11,12
	ar	%r9,%r4
	sth	%r9,378(%r3)
	llc	%r10,0(%r2,%r10)
	ar	%r10,%r4
	sth	%r10,380(%r3)
	llc	%r5,0(%r2,%r5)
	ar	%r5,%r4
	sth	%r5,382(%r3)
	crjle	%r8,%r0,.L364
	sll	%r0,1
	lgfr	%r10,%r0
	llc	%r9,0(%r10,%r1)
	ahik	%r5,%r0,1
	ar	%r9,%r4
	sth	%r9,384(%r3)
	lgfr	%r5,%r5
	llc	%r0,0(%r5,%r1)
	agr	%r10,%r7
	ar	%r0,%r4
	sth	%r0,386(%r3)
	llc	%r0,0(%r10,%r1)
	agr	%r5,%r7
	ar	%r0,%r4
	sth	%r0,388(%r3)
	llc	%r0,0(%r5,%r1)
	agr	%r10,%r7
	ar	%r0,%r4
	sth	%r0,390(%r3)
	llc	%r0,0(%r10,%r1)
	agr	%r5,%r7
	ar	%r0,%r4
	sth	%r0,392(%r3)
	llc	%r0,0(%r5,%r1)
	agr	%r10,%r7
	ar	%r0,%r4
	sth	%r0,394(%r3)
	llc	%r0,0(%r10,%r1)
	agr	%r5,%r7
	ar	%r0,%r4
	sth	%r0,396(%r3)
	llc	%r0,0(%r5,%r1)
	agr	%r10,%r7
	ar	%r0,%r4
	sth	%r0,398(%r3)
	llc	%r0,0(%r10,%r1)
	agr	%r5,%r7
	ar	%r0,%r4
	sth	%r0,400(%r3)
	llc	%r0,0(%r5,%r1)
	agr	%r10,%r7
	ar	%r0,%r4
	sth	%r0,402(%r3)
	llc	%r0,0(%r10,%r1)
	agr	%r5,%r7
	ar	%r0,%r4
	sth	%r0,404(%r3)
	llc	%r0,0(%r5,%r1)
	agr	%r10,%r7
	ar	%r0,%r4
	sth	%r0,406(%r3)
	llc	%r0,0(%r10,%r1)
	agr	%r5,%r7
	ar	%r0,%r4
	sth	%r0,408(%r3)
	llc	%r9,0(%r5,%r1)
	ahik	%r0,%r11,13
	ar	%r9,%r4
	sth	%r9,410(%r3)
	llc	%r10,0(%r2,%r10)
	ar	%r10,%r4
	sth	%r10,412(%r3)
	llc	%r5,0(%r2,%r5)
	ar	%r5,%r4
	sth	%r5,414(%r3)
	crjle	%r8,%r0,.L364
	sll	%r0,1
	lgfr	%r10,%r0
	llc	%r9,0(%r10,%r1)
	ahik	%r5,%r0,1
	ar	%r9,%r4
	sth	%r9,416(%r3)
	lgfr	%r5,%r5
	llc	%r0,0(%r5,%r1)
	agr	%r10,%r7
	ar	%r0,%r4
	sth	%r0,418(%r3)
	llc	%r0,0(%r10,%r1)
	agr	%r5,%r7
	ar	%r0,%r4
	sth	%r0,420(%r3)
	llc	%r0,0(%r5,%r1)
	agr	%r10,%r7
	ar	%r0,%r4
	sth	%r0,422(%r3)
	llc	%r0,0(%r10,%r1)
	agr	%r5,%r7
	ar	%r0,%r4
	sth	%r0,424(%r3)
	llc	%r0,0(%r5,%r1)
	agr	%r10,%r7
	ar	%r0,%r4
	sth	%r0,426(%r3)
	llc	%r0,0(%r10,%r1)
	agr	%r5,%r7
	ar	%r0,%r4
	sth	%r0,428(%r3)
	llc	%r0,0(%r5,%r1)
	agr	%r10,%r7
	ar	%r0,%r4
	sth	%r0,430(%r3)
	llc	%r0,0(%r10,%r1)
	agr	%r5,%r7
	ar	%r0,%r4
	sth	%r0,432(%r3)
	llc	%r0,0(%r5,%r1)
	agr	%r10,%r7
	ar	%r0,%r4
	sth	%r0,434(%r3)
	llc	%r0,0(%r10,%r1)
	agr	%r5,%r7
	ar	%r0,%r4
	sth	%r0,436(%r3)
	llc	%r0,0(%r5,%r1)
	agr	%r10,%r7
	ar	%r0,%r4
	sth	%r0,438(%r3)
	llc	%r0,0(%r10,%r1)
	agr	%r5,%r7
	ar	%r0,%r4
	sth	%r0,440(%r3)
	llc	%r0,0(%r5,%r1)
	ahi	%r11,14
	ar	%r0,%r4
	sth	%r0,442(%r3)
	llc	%r0,0(%r2,%r10)
	ar	%r0,%r4
	sth	%r0,444(%r3)
	llc	%r5,0(%r2,%r5)
	ar	%r5,%r4
	sth	%r5,446(%r3)
	crjle	%r8,%r11,.L364
	sll	%r11,1
	lgfr	%r10,%r11
	llc	%r0,0(%r10,%r1)
	ahik	%r5,%r11,1
	ar	%r0,%r4
	sth	%r0,448(%r3)
	lgfr	%r5,%r5
	llc	%r0,0(%r5,%r1)
	agrk	%r11,%r10,%r7
	ar	%r0,%r4
	sth	%r0,450(%r3)
	llc	%r0,0(%r11,%r1)
	agr	%r5,%r7
	ar	%r0,%r4
	sth	%r0,452(%r3)
	llc	%r0,0(%r5,%r1)
	agr	%r11,%r7
	ar	%r0,%r4
	sth	%r0,454(%r3)
	llc	%r0,0(%r11,%r1)
	agr	%r5,%r7
	ar	%r0,%r4
	sth	%r0,456(%r3)
	llc	%r0,0(%r5,%r1)
	agr	%r11,%r7
	ar	%r0,%r4
	sth	%r0,458(%r3)
	llc	%r0,0(%r11,%r1)
	agr	%r5,%r7
	ar	%r0,%r4
	sth	%r0,460(%r3)
	llc	%r0,0(%r5,%r1)
	agr	%r11,%r7
	ar	%r0,%r4
	sth	%r0,462(%r3)
	llc	%r0,0(%r11,%r1)
	agr	%r5,%r7
	ar	%r0,%r4
	sth	%r0,464(%r3)
	llc	%r0,0(%r5,%r1)
	agr	%r11,%r7
	ar	%r0,%r4
	sth	%r0,466(%r3)
	llc	%r0,0(%r11,%r1)
	agr	%r5,%r7
	ar	%r0,%r4
	sth	%r0,468(%r3)
	llc	%r0,0(%r5,%r1)
	agr	%r11,%r7
	ar	%r0,%r4
	sth	%r0,470(%r3)
	llc	%r0,0(%r11,%r1)
	agr	%r5,%r7
	ar	%r0,%r4
	sth	%r0,472(%r3)
	llc	%r0,0(%r5,%r1)
	ar	%r0,%r4
	sth	%r0,474(%r3)
	llc	%r0,0(%r2,%r11)
	ar	%r0,%r4
	sth	%r0,476(%r3)
	llc	%r2,0(%r2,%r5)
	ar	%r2,%r4
	sth	%r2,478(%r3)
.L364:
	l	%r2,320(%r15)
	ahi	%r2,-1
	chsi	348(%r15),1
	risbgn	%r2,%r2,27,128+58,5
	la	%r2,32(%r2)
	locghinh	%r2,32
	ag	%r2,360(%r15)
	stg	%r2,360(%r15)
.L358:
	lg	%r2,344(%r15)
	tmll	%r2,1
	je	.L318
	lr	%r3,%r2
	nill	%r3,65534
	lgfr	%r3,%r3
	llc	%r2,0(%r3,%r1)
	cijlh	%r7,1,.L443
	lg	%r5,360(%r15)
	ar	%r2,%r4
	sth	%r4,2(%r5)
	sth	%r2,0(%r5)
	llc	%r2,1(%r3,%r1)
	sth	%r4,6(%r5)
	ar	%r2,%r4
	sth	%r2,4(%r5)
	llc	%r2,2(%r3,%r1)
	sth	%r4,10(%r5)
	ar	%r2,%r4
	sth	%r2,8(%r5)
	llc	%r2,3(%r3,%r1)
	sth	%r4,14(%r5)
	ar	%r2,%r4
	sth	%r2,12(%r5)
	llc	%r2,4(%r3,%r1)
	sth	%r4,18(%r5)
	ar	%r2,%r4
	sth	%r2,16(%r5)
	llc	%r2,5(%r3,%r1)
	sth	%r4,22(%r5)
	ar	%r2,%r4
	sth	%r2,20(%r5)
	llc	%r2,6(%r3,%r1)
	sth	%r4,26(%r5)
	ar	%r2,%r4
	sth	%r2,24(%r5)
	llc	%r1,7(%r3,%r1)
	sth	%r4,30(%r5)
	ar	%r4,%r1
	sth	%r4,28(%r5)
	j	.L318
.L440:
	lg	%r0,344(%r15)
	lg	%r10,360(%r15)
	risbg	%r5,%r0,0,128+62,0
	lr	%r2,%r0
	sra	%r2,1
	locghinh	%r5,2
	agr	%r3,%r5
	lhi	%r5,0
	ag	%r3,520(%r15)
	slgrk	%r3,%r10,%r3
	risbgn	%r3,%r0,0,128+61,1
	lhi	%r0,0
	alcr	%r5,%r5
	ltr	%r2,%r2
	locghinh	%r3,4
	agr	%r3,%r10
	slgrk	%r3,%r1,%r3
	lr	%r3,%r4
	alcr	%r0,%r0
	or	%r5,%r0
	je	.L327
	cijle	%r2,15,.L327
	ltr	%r2,%r2
	vlvgh	%v2,%r4,7
	lr	%r0,%r2
	vreph	%v2,%v2,7
	lochinh	%r0,1
	risbgn	%r11,%r0,31,128+59,1
	lgr	%r5,%r1
	agr	%r11,%r1
	lgr	%r3,%r10
.L330:
	vl	%v0,0(%r5)
	aghi	%r5,16
	vuplhb	%v4,%v0
	vupllb	%v0,%v0
	vah	%v4,%v4,%v2
	vah	%v0,%v0,%v2
	vst	%v4,0(%r3)
	vst	%v0,16(%r3)
	aghi	%r3,32
	cgrjlh	%r5,%r11,.L330
	risbgn	%r3,%r0,30,128+58,2
	risbg	%r5,%r0,32,128+60,0
	ag	%r3,360(%r15)
	tmll	%r0,7
	je	.L332
	sllk	%r11,%r5,1
	lgfr	%r10,%r11
	llc	%r0,0(%r10,%r1)
	ahi	%r11,1
	ar	%r0,%r4
	sth	%r0,0(%r3)
	lgfr	%r11,%r11
	llc	%r11,0(%r11,%r1)
	ahik	%r0,%r5,1
	ar	%r11,%r4
	sth	%r11,2(%r3)
	crjh	%r2,%r0,.L444
.L332:
	ahik	%r3,%r2,-1
	risbgn	%r3,%r3,30,128+61,2
	ltr	%r2,%r2
	la	%r2,4(%r3)
	lg	%r3,344(%r15)
	locghinh	%r2,4
	ag	%r2,360(%r15)
	tmll	%r3,1
	je	.L334
.L441:
	l	%r3,348(%r15)
	nill	%r3,65534
	lgfr	%r3,%r3
	llc	%r3,0(%r3,%r1)
	sth	%r4,2(%r2)
	ar	%r3,%r4
	sth	%r3,0(%r2)
	j	.L334
.L359:
	agrk	%r11,%r1,%r7
	stg	%r7,240(%r15)
	stg	%r4,256(%r15)
	lt	%r2,320(%r15)
	lg	%r4,176(%r15)
	lr	%r10,%r2
	lg	%r8,192(%r15)
	lg	%r2,360(%r15)
	lg	%r7,208(%r15)
	lg	%r0,224(%r15)
	stg	%r1,160(%r15)
	lochinh	%r10,1
	lgr	%r3,%r1
.L365:
	llc	%r1,0(%r3)
	aghi	%r11,2
	ar	%r1,%r5
	sth	%r1,0(%r2)
	llc	%r1,1(%r3)
	la	%r2,32(%r2)
	ar	%r1,%r5
	sthy	%r1,-30(%r2)
	llc	%r1,-2(%r11)
	aghi	%r3,2
	ar	%r1,%r5
	sthy	%r1,-28(%r2)
	llc	%r1,-1(%r11)
	ar	%r1,%r5
	sthy	%r1,-26(%r2)
	llc	%r1,-2(%r3,%r6)
	ar	%r1,%r5
	sthy	%r1,-24(%r2)
	llc	%r1,-1(%r3,%r6)
	ar	%r1,%r5
	sthy	%r1,-22(%r2)
	llc	%r1,-2(%r3,%r8)
	ar	%r1,%r5
	sthy	%r1,-20(%r2)
	llc	%r1,-1(%r3,%r8)
	ar	%r1,%r5
	sthy	%r1,-18(%r2)
	llc	%r1,-2(%r3,%r4)
	ar	%r1,%r5
	sthy	%r1,-16(%r2)
	llc	%r1,-1(%r3,%r4)
	ar	%r1,%r5
	sthy	%r1,-14(%r2)
	llc	%r1,-2(%r3,%r7)
	ar	%r1,%r5
	sthy	%r1,-12(%r2)
	llc	%r1,-1(%r3,%r7)
	ar	%r1,%r5
	sthy	%r1,-10(%r2)
	llc	%r1,-2(%r3,%r9)
	ar	%r1,%r5
	sthy	%r1,-8(%r2)
	llc	%r1,-1(%r3,%r9)
	ar	%r1,%r5
	sthy	%r1,-6(%r2)
	lgr	%r1,%r0
	llc	%r1,-2(%r3,%r1)
	ar	%r1,%r5
	sthy	%r1,-4(%r2)
	lgr	%r1,%r0
	llc	%r1,-1(%r3,%r1)
	ar	%r1,%r5
	sthy	%r1,-2(%r2)
	brct	%r10,.L365
	lg	%r1,160(%r15)
	lg	%r7,240(%r15)
	lg	%r4,256(%r15)
	j	.L364
.L337:
	lg	%r11,360(%r15)
	ltr	%r5,%r5
	lr	%r0,%r5
	lochinh	%r0,1
	lgr	%r10,%r1
.L343:
	llc	%r9,0(%r10)
	aghi	%r2,2
	ar	%r9,%r3
	sth	%r9,0(%r11)
	llc	%r9,1(%r10)
	la	%r11,8(%r11)
	ar	%r9,%r3
	sthy	%r9,-6(%r11)
	llc	%r9,-2(%r2)
	aghi	%r10,2
	ar	%r9,%r3
	sthy	%r9,-4(%r11)
	llc	%r9,-1(%r2)
	ar	%r9,%r3
	sthy	%r9,-2(%r11)
	brct	%r0,.L343
	j	.L342
.L347:
	agrk	%r5,%r1,%r7
	lg	%r2,360(%r15)
	ltr	%r6,%r6
	lr	%r9,%r6
	lochinh	%r9,1
	lgr	%r3,%r1
.L353:
	llc	%r0,0(%r3)
	aghi	%r5,2
	ar	%r0,%r8
	sth	%r0,0(%r2)
	llc	%r0,1(%r3)
	la	%r2,16(%r2)
	ar	%r0,%r8
	sthy	%r0,-14(%r2)
	llc	%r0,-2(%r5)
	aghi	%r3,2
	ar	%r0,%r8
	sthy	%r0,-12(%r2)
	llc	%r0,-1(%r5)
	ar	%r0,%r8
	sthy	%r0,-10(%r2)
	llc	%r0,-2(%r3,%r11)
	ar	%r0,%r8
	sthy	%r0,-8(%r2)
	llc	%r0,-1(%r3,%r11)
	ar	%r0,%r8
	sthy	%r0,-6(%r2)
	llc	%r0,-2(%r3,%r10)
	ar	%r0,%r8
	sthy	%r0,-4(%r2)
	llc	%r0,-1(%r3,%r10)
	ar	%r0,%r8
	sthy	%r0,-2(%r2)
	brct	%r9,.L353
	j	.L352
.L371:
	lg	%r2,360(%r15)
	j	.L346
.L370:
	lg	%r2,360(%r15)
	j	.L336
.L443:
	lg	%r10,360(%r15)
	ar	%r2,%r4
	sth	%r4,2(%r10)
	sth	%r2,0(%r10)
	agrk	%r5,%r1,%r7
	llc	%r2,0(%r5,%r3)
	sth	%r4,6(%r10)
	ar	%r2,%r4
	sth	%r2,4(%r10)
	sllg	%r2,%r7,1
	agrk	%r11,%r1,%r2
	llc	%r0,0(%r11,%r3)
	sth	%r4,10(%r10)
	ar	%r0,%r4
	sth	%r0,8(%r10)
	agr	%r2,%r7
	agrk	%r11,%r1,%r2
	llc	%r0,0(%r11,%r3)
	sth	%r4,14(%r10)
	ar	%r0,%r4
	sth	%r0,12(%r10)
	agr	%r2,%r7
	agrk	%r11,%r1,%r2
	llc	%r0,0(%r11,%r3)
	sth	%r4,18(%r10)
	ar	%r0,%r4
	sth	%r0,16(%r10)
	agr	%r2,%r7
	agrk	%r11,%r1,%r2
	llc	%r0,0(%r11,%r3)
	sth	%r4,22(%r10)
	ar	%r0,%r4
	sth	%r0,20(%r10)
	agr	%r2,%r7
	agr	%r1,%r2
	llc	%r1,0(%r1,%r3)
	sth	%r4,26(%r10)
	ar	%r1,%r4
	sth	%r1,24(%r10)
	agr	%r2,%r5
	llc	%r1,0(%r2,%r3)
	sth	%r4,30(%r10)
	ar	%r4,%r1
	sth	%r4,28(%r10)
	j	.L318
.L442:
	agrk	%r5,%r1,%r7
	llc	%r0,0(%r5,%r3)
	sth	%r4,6(%r2)
	ar	%r0,%r4
	sth	%r0,4(%r2)
	agrk	%r10,%r1,%r3
	sllg	%r11,%r7,1
	llc	%r0,0(%r10,%r11)
	sth	%r4,10(%r2)
	ar	%r0,%r4
	sth	%r0,8(%r2)
	agr	%r3,%r5
	llc	%r3,0(%r3,%r11)
	sth	%r4,14(%r2)
	ar	%r3,%r4
	sth	%r3,12(%r2)
	j	.L356
.L444:
	sll	%r0,1
	lgfr	%r11,%r0
	llc	%r11,0(%r11,%r1)
	ahi	%r0,1
	ar	%r11,%r4
	sth	%r11,4(%r3)
	lgfr	%r11,%r0
	llc	%r11,0(%r11,%r1)
	ahik	%r0,%r5,2
	ar	%r11,%r4
	sth	%r11,6(%r3)
	crjle	%r2,%r0,.L332
	sll	%r0,1
	lgfr	%r11,%r0
	llc	%r11,0(%r11,%r1)
	ahi	%r0,1
	ar	%r11,%r4
	sth	%r11,8(%r3)
	lgfr	%r0,%r0
	lgr	%r11,%r0
	llc	%r11,0(%r11,%r1)
	ahik	%r0,%r5,3
	ar	%r11,%r4
	sth	%r11,10(%r3)
	crjle	%r2,%r0,.L332
	sll	%r0,1
	lgfr	%r11,%r0
	llc	%r11,0(%r11,%r1)
	ahi	%r0,1
	ar	%r11,%r4
	sth	%r11,12(%r3)
	lgfr	%r0,%r0
	lgr	%r11,%r0
	llc	%r11,0(%r11,%r1)
	ahik	%r0,%r5,4
	ar	%r11,%r4
	sth	%r11,14(%r3)
	crjle	%r2,%r0,.L332
	sll	%r0,1
	lgfr	%r11,%r0
	llc	%r11,0(%r11,%r1)
	ahi	%r0,1
	ar	%r11,%r4
	sth	%r11,16(%r3)
	lgfr	%r0,%r0
	lgr	%r11,%r0
	llc	%r11,0(%r11,%r1)
	ahik	%r0,%r5,5
	ar	%r11,%r4
	sth	%r11,18(%r3)
	crjle	%r2,%r0,.L332
	sll	%r0,1
	lgfr	%r11,%r0
	llc	%r11,0(%r11,%r1)
	ahi	%r0,1
	ar	%r11,%r4
	sth	%r11,20(%r3)
	lgfr	%r0,%r0
	lgr	%r11,%r0
	llc	%r0,0(%r11,%r1)
	ahi	%r5,6
	ar	%r0,%r4
	sth	%r0,22(%r3)
	crjle	%r2,%r5,.L332
	sll	%r5,1
	lgfr	%r11,%r5
	llc	%r0,0(%r11,%r1)
	ahi	%r5,1
	ar	%r0,%r4
	sth	%r0,24(%r3)
	lgfr	%r5,%r5
	llc	%r5,0(%r5,%r1)
	ar	%r5,%r4
	sth	%r5,26(%r3)
	j	.L332
.L327:
	lg	%r11,360(%r15)
	ltr	%r2,%r2
	lr	%r5,%r2
	lochinh	%r5,1
	lgr	%r10,%r1
.L333:
	llc	%r0,0(%r10)
	la	%r11,4(%r11)
	ar	%r0,%r3
	sthy	%r0,-4(%r11)
	llc	%r0,1(%r10)
	aghi	%r10,2
	ar	%r0,%r3
	sthy	%r0,-2(%r11)
	brct	%r5,.L333
	j	.L332
	.section	.rodata._Z6pack_KIhsLi16ELi2ELb0EEviiPKT_iPT0_S3_,"aG",@progbits,_Z6pack_KIhsLi16ELi2ELb0EEviiPKT_iPT0_S3_,comdat
	.align	8
.L445:
.L449:
	.byte	8
	.byte	9
	.byte	24
	.byte	25
	.byte	10
	.byte	11
	.byte	26
	.byte	27
	.byte	12
	.byte	13
	.byte	28
	.byte	29
	.byte	14
	.byte	15
	.byte	30
	.byte	31
.L448:
	.byte	0
	.byte	1
	.byte	16
	.byte	17
	.byte	2
	.byte	3
	.byte	18
	.byte	19
	.byte	4
	.byte	5
	.byte	20
	.byte	21
	.byte	6
	.byte	7
	.byte	22
	.byte	23
.L447:
	.byte	1
	.byte	3
	.byte	5
	.byte	7
	.byte	9
	.byte	11
	.byte	13
	.byte	15
	.byte	17
	.byte	19
	.byte	21
	.byte	23
	.byte	25
	.byte	27
	.byte	29
	.byte	31
.L446:
	.byte	0
	.byte	2
	.byte	4
	.byte	6
	.byte	8
	.byte	10
	.byte	12
	.byte	14
	.byte	16
	.byte	18
	.byte	20
	.byte	22
	.byte	24
	.byte	26
	.byte	28
	.byte	30
	.align	2
	.section	.text._Z6pack_KIhsLi16ELi2ELb0EEviiPKT_iPT0_S3_,"axG",@progbits,_Z6pack_KIhsLi16ELi2ELb0EEviiPKT_iPT0_S3_,comdat
	.cfi_endproc
.LFE4896:
	.size	_Z6pack_KIhsLi16ELi2ELb0EEviiPKT_iPT0_S3_, .-_Z6pack_KIhsLi16ELi2ELb0EEviiPKT_iPT0_S3_
	.section	.text._Z6pack_KIhsLi16ELi2ELb1EEviiPKT_iPT0_S3_,"axG",@progbits,_Z6pack_KIhsLi16ELi2ELb1EEviiPKT_iPT0_S3_,comdat
	.align	8
	.align	16
	.weak	_Z6pack_KIhsLi16ELi2ELb1EEviiPKT_iPT0_S3_
	.type	_Z6pack_KIhsLi16ELi2ELb1EEviiPKT_iPT0_S3_, @function
_Z6pack_KIhsLi16ELi2ELb1EEviiPKT_iPT0_S3_:
.LFB4897:
	.cfi_startproc
	stmg	%r6,%r15,48(%r15)
	.cfi_offset 6, -112
	.cfi_offset 7, -104
	.cfi_offset 8, -96
	.cfi_offset 9, -88
	.cfi_offset 10, -80
	.cfi_offset 11, -72
	.cfi_offset 12, -64
	.cfi_offset 13, -56
	.cfi_offset 14, -48
	.cfi_offset 15, -40
	larl	%r13,.L632
	lgr	%r1,%r15
	lay	%r15,-4096(%r15)
	.cfi_def_cfa_offset 4256
	cg	%r0,4088(%r15)
	lay	%r15,-1600(%r15)
	.cfi_def_cfa_offset 5856
	aghi	%r1,-64
	std	%f8,0(%r1)
	std	%f10,8(%r1)
	std	%f12,16(%r1)
	std	%f14,24(%r1)
	std	%f9,32(%r1)
	std	%f11,40(%r1)
	std	%f13,48(%r1)
	std	%f15,56(%r1)
	.cfi_offset 24, -224
	.cfi_offset 25, -216
	.cfi_offset 26, -208
	.cfi_offset 27, -200
	.cfi_offset 28, -192
	.cfi_offset 29, -184
	.cfi_offset 30, -176
	.cfi_offset 31, -168
	lr	%r1,%r2
	stg	%r2,1400(%r15)
	ahi	%r1,1
	stg	%r4,1392(%r15)
	nill	%r1,65534
	stg	%r5,2048(%r15)
	sty	%r1,4116(%r15)
	stg	%r6,1464(%r15)
	risbg	%r1,%r3,60,128+32,0
	st	%r1,1532(%r15)
	lgh	%r8,5862(%r15)
	cijhe	%r3,0,.L451
	asi	1532(%r15),-1
	l	%r1,1532(%r15)
	oilf	%r1,4294967280
	st	%r1,1532(%r15)
	asi	1532(%r15),1
.L451:
	lr	%r1,%r3
	s	%r1,1532(%r15)
	st	%r1,1460(%r15)
	cijle	%r1,0,.L452
	lg	%r5,2048(%r15)
	lg	%r7,1400(%r15)
	lgr	%r2,%r5
	lr	%r1,%r7
	nill	%r1,65534
	msgfr	%r2,%r1
	lr	%r4,%r7
	lr	%r1,%r7
	nilf	%r4,1
	st	%r4,1484(%r15)
	ag	%r2,1392(%r15)
	stg	%r2,1416(%r15)
	srl	%r1,31
	ar	%r1,%r7
	srak	%r0,%r1,1
	st	%r0,1536(%r15)
	llgfr	%r2,%r0
	aghi	%r2,-1
	chi	%r7,1
	lgr	%r1,%r2
	locghinh	%r1,0
	sllg	%r9,%r5,1
	msgr	%r1,%r9
	sllg	%r2,%r2,6
	sllg	%r11,%r5,3
	sllg	%r4,%r5,2
	sllg	%r10,%r5,5
	vl	%v14,.L633-.L632(%r13),3
	aghik	%r3,%r1,15
	ltgr	%r5,%r5
	locghinhe	%r3,15
	stg	%r3,1496(%r15)
	lgr	%r6,%r3
	aghi	%r2,63
	lgr	%r3,%r5
	agr	%r3,%r6
	stg	%r3,1544(%r15)
	chi	%r7,1
	locghinh	%r2,63
	stg	%r2,1504(%r15)
	ltgr	%r5,%r5
	locghinl	%r1,0
	stg	%r1,1512(%r15)
	lgr	%r2,%r1
	lgr	%r1,%r5
	agr	%r1,%r2
	stg	%r1,1552(%r15)
	chsi	1404(%r15),1
	lr	%r2,%r0
	lgr	%r1,%r5
	lochinh	%r2,1
	st	%r2,1540(%r15)
	mghi	%r1,22
	lgr	%r0,%r5
	lgr	%r7,%r0
	ldgr	%f2,%r1
	lgr	%r1,%r5
	mghi	%r1,26
	lgr	%r6,%r0
	vlvgh	%v1,%r8,7
	vreph	%v1,%v1,7
	ldgr	%f0,%r1
	lr	%r1,%r2
	nill	%r1,65520
	st	%r1,1480(%r15)
	sll	%r1,1
	ahik	%r3,%r1,1
	ahik	%r2,%r1,2
	msgfr	%r5,%r3
	lgr	%r3,%r0
	msgfr	%r3,%r2
	ahik	%r2,%r1,4
	stg	%r5,552(%r15)
	msgfr	%r6,%r2
	stg	%r3,560(%r15)
	ahik	%r3,%r1,3
	msgfr	%r7,%r3
	stg	%r6,576(%r15)
	ahik	%r3,%r1,5
	ahik	%r2,%r1,6
	stg	%r7,568(%r15)
	lgr	%r7,%r0
	msgfr	%r7,%r3
	lgr	%r3,%r0
	msgfr	%r3,%r2
	lgr	%r6,%r0
	stg	%r7,584(%r15)
	ahik	%r2,%r1,8
	stg	%r3,1360(%r15)
	ahik	%r3,%r1,7
	msgfr	%r6,%r3
	ahik	%r3,%r1,9
	lgr	%r5,%r0
	msgfr	%r5,%r2
	stg	%r6,1368(%r15)
	ahik	%r2,%r1,10
	lgr	%r6,%r0
	stg	%r5,1376(%r15)
	msgfr	%r6,%r3
	lgr	%r3,%r0
	msgfr	%r3,%r2
	lgr	%r7,%r0
	stg	%r6,1384(%r15)
	ahik	%r2,%r1,12
	stg	%r3,3064(%r15)
	lgr	%r6,%r3
	ahik	%r3,%r1,11
	msgfr	%r7,%r3
	lgr	%r5,%r0
	lgr	%r3,%r0
	msgfr	%r5,%r2
	stg	%r7,2552(%r15)
	ahik	%r2,%r1,13
	lgr	%r7,%r3
	msgfr	%r7,%r2
	lgr	%r0,%r5
	lgr	%r5,%r3
	msgfr	%r5,%r1
	lgr	%r2,%r7
	lg	%r7,552(%r15)
	vlr	%v4,%v1
	stg	%r5,1968(%r15)
	aghi	%r7,1
	stg	%r7,1960(%r15)
	lg	%r7,552(%r15)
	aghi	%r7,2
	stg	%r7,1952(%r15)
	lg	%r7,552(%r15)
	aghi	%r7,3
	stg	%r7,1944(%r15)
	lg	%r7,552(%r15)
	aghi	%r7,4
	stg	%r7,1936(%r15)
	lg	%r7,552(%r15)
	aghi	%r7,5
	stg	%r7,1928(%r15)
	lg	%r7,552(%r15)
	aghi	%r7,6
	stg	%r7,1920(%r15)
	lg	%r7,552(%r15)
	aghi	%r7,7
	stg	%r7,2032(%r15)
	lg	%r7,552(%r15)
	aghi	%r7,8
	stg	%r7,1912(%r15)
	lg	%r7,552(%r15)
	aghi	%r7,9
	stg	%r7,2024(%r15)
	lg	%r7,552(%r15)
	aghi	%r7,10
	stg	%r7,1832(%r15)
	lg	%r7,552(%r15)
	aghi	%r7,11
	stg	%r7,1976(%r15)
	lg	%r7,552(%r15)
	aghi	%r7,12
	stg	%r7,2008(%r15)
	lg	%r7,552(%r15)
	aghi	%r7,13
	stg	%r7,2040(%r15)
	lg	%r7,552(%r15)
	aghi	%r7,14
	stg	%r7,1808(%r15)
	lg	%r7,552(%r15)
	aghi	%r7,15
	stg	%r7,1896(%r15)
	lg	%r7,560(%r15)
	aghi	%r7,1
	stg	%r7,2056(%r15)
	lg	%r7,560(%r15)
	aghi	%r7,2
	stg	%r7,2072(%r15)
	lg	%r7,560(%r15)
	aghi	%r7,3
	stg	%r7,2088(%r15)
	lg	%r7,560(%r15)
	aghi	%r7,4
	stg	%r7,2104(%r15)
	lg	%r7,560(%r15)
	aghi	%r7,5
	stg	%r7,2120(%r15)
	lg	%r7,560(%r15)
	aghi	%r7,6
	stg	%r7,2136(%r15)
	lg	%r7,560(%r15)
	aghi	%r7,7
	stg	%r7,2152(%r15)
	lg	%r7,560(%r15)
	aghi	%r7,8
	stg	%r7,2168(%r15)
	lg	%r7,560(%r15)
	aghi	%r7,9
	stg	%r7,2184(%r15)
	lg	%r7,560(%r15)
	aghi	%r7,10
	stg	%r7,2200(%r15)
	lg	%r7,560(%r15)
	aghi	%r7,11
	stg	%r7,2216(%r15)
	lg	%r7,560(%r15)
	aghi	%r7,12
	stg	%r7,2232(%r15)
	lg	%r7,560(%r15)
	aghi	%r7,13
	stg	%r7,2248(%r15)
	lg	%r7,560(%r15)
	aghi	%r7,14
	stg	%r7,2264(%r15)
	lg	%r7,560(%r15)
	aghi	%r7,15
	stg	%r7,2280(%r15)
	lg	%r7,568(%r15)
	aghi	%r7,1
	stg	%r7,2064(%r15)
	lg	%r7,568(%r15)
	aghi	%r7,2
	stg	%r7,2080(%r15)
	lg	%r7,568(%r15)
	aghi	%r7,3
	stg	%r7,2096(%r15)
	lg	%r7,568(%r15)
	aghi	%r7,4
	stg	%r7,2112(%r15)
	lg	%r7,568(%r15)
	aghi	%r7,5
	stg	%r7,2128(%r15)
	lg	%r7,568(%r15)
	aghi	%r7,6
	stg	%r7,2144(%r15)
	lg	%r7,568(%r15)
	aghi	%r7,7
	stg	%r7,2160(%r15)
	lg	%r7,568(%r15)
	aghi	%r7,8
	stg	%r7,2176(%r15)
	lg	%r7,568(%r15)
	aghi	%r7,9
	stg	%r7,2192(%r15)
	lg	%r7,568(%r15)
	aghi	%r7,10
	stg	%r7,2208(%r15)
	lg	%r7,568(%r15)
	aghi	%r7,11
	stg	%r7,2224(%r15)
	lg	%r7,568(%r15)
	aghi	%r7,12
	stg	%r7,2240(%r15)
	lg	%r7,568(%r15)
	aghi	%r7,13
	stg	%r7,2256(%r15)
	lg	%r7,568(%r15)
	aghi	%r7,14
	stg	%r7,2272(%r15)
	lg	%r7,568(%r15)
	aghi	%r7,15
	stg	%r7,2288(%r15)
	lg	%r7,576(%r15)
	aghi	%r7,1
	stg	%r7,2312(%r15)
	lg	%r7,576(%r15)
	aghi	%r7,2
	stg	%r7,2328(%r15)
	lg	%r7,576(%r15)
	aghi	%r7,3
	stg	%r7,2344(%r15)
	lg	%r7,576(%r15)
	aghi	%r7,4
	stg	%r7,2360(%r15)
	lg	%r7,576(%r15)
	aghi	%r7,5
	stg	%r7,2376(%r15)
	lg	%r7,576(%r15)
	aghi	%r7,6
	stg	%r7,2392(%r15)
	lg	%r7,576(%r15)
	aghi	%r7,7
	stg	%r7,2408(%r15)
	lg	%r7,576(%r15)
	aghi	%r7,8
	stg	%r7,2424(%r15)
	lg	%r7,576(%r15)
	aghi	%r7,9
	stg	%r7,2440(%r15)
	lg	%r7,576(%r15)
	aghi	%r7,10
	stg	%r7,2456(%r15)
	lg	%r7,576(%r15)
	aghi	%r7,11
	stg	%r7,2472(%r15)
	lg	%r7,576(%r15)
	aghi	%r7,12
	stg	%r7,2488(%r15)
	lg	%r7,576(%r15)
	aghi	%r7,13
	stg	%r7,2504(%r15)
	lg	%r7,576(%r15)
	aghi	%r7,14
	stg	%r7,2520(%r15)
	lg	%r7,576(%r15)
	aghi	%r7,15
	stg	%r7,2536(%r15)
	lg	%r7,584(%r15)
	aghi	%r7,1
	stg	%r7,2320(%r15)
	lg	%r7,584(%r15)
	aghi	%r7,2
	stg	%r7,2336(%r15)
	lg	%r7,584(%r15)
	aghi	%r7,3
	stg	%r7,2352(%r15)
	lg	%r7,584(%r15)
	aghi	%r7,4
	stg	%r7,2368(%r15)
	lg	%r7,584(%r15)
	aghi	%r7,5
	stg	%r7,2384(%r15)
	lg	%r7,584(%r15)
	aghi	%r7,6
	stg	%r7,2400(%r15)
	lg	%r7,584(%r15)
	aghi	%r7,7
	stg	%r7,2416(%r15)
	lg	%r7,584(%r15)
	aghi	%r7,8
	stg	%r7,2432(%r15)
	lg	%r7,584(%r15)
	aghi	%r7,9
	stg	%r7,2448(%r15)
	lg	%r7,584(%r15)
	aghi	%r7,10
	stg	%r7,2464(%r15)
	lg	%r7,584(%r15)
	aghi	%r7,11
	stg	%r7,2480(%r15)
	lg	%r7,584(%r15)
	aghi	%r7,12
	stg	%r7,2496(%r15)
	lg	%r7,584(%r15)
	aghi	%r7,13
	stg	%r7,2512(%r15)
	lg	%r7,584(%r15)
	aghi	%r7,14
	stg	%r7,2528(%r15)
	lg	%r7,584(%r15)
	aghi	%r7,15
	stg	%r7,2544(%r15)
	lg	%r7,1360(%r15)
	aghi	%r7,1
	stg	%r7,2560(%r15)
	lg	%r7,1360(%r15)
	aghi	%r7,2
	stg	%r7,2576(%r15)
	lg	%r7,1360(%r15)
	aghi	%r7,3
	stg	%r7,2592(%r15)
	lg	%r7,1360(%r15)
	aghi	%r7,4
	stg	%r7,2608(%r15)
	lg	%r7,1360(%r15)
	aghi	%r7,5
	stg	%r7,2624(%r15)
	lg	%r7,1360(%r15)
	aghi	%r7,6
	stg	%r7,2640(%r15)
	lg	%r7,1360(%r15)
	aghi	%r7,7
	stg	%r7,2656(%r15)
	lg	%r7,1360(%r15)
	aghi	%r7,8
	stg	%r7,2672(%r15)
	lg	%r7,1360(%r15)
	aghi	%r7,9
	stg	%r7,2688(%r15)
	lg	%r7,1360(%r15)
	aghi	%r7,10
	stg	%r7,2704(%r15)
	lg	%r7,1360(%r15)
	aghi	%r7,11
	stg	%r7,2720(%r15)
	lg	%r7,1360(%r15)
	aghi	%r7,12
	stg	%r7,2736(%r15)
	lg	%r7,1360(%r15)
	aghi	%r7,13
	stg	%r7,2752(%r15)
	lg	%r7,1360(%r15)
	aghi	%r7,14
	stg	%r7,2768(%r15)
	lg	%r7,1360(%r15)
	aghi	%r7,15
	stg	%r7,2784(%r15)
	lg	%r7,1368(%r15)
	aghi	%r7,1
	stg	%r7,2568(%r15)
	lg	%r7,1368(%r15)
	aghi	%r7,2
	stg	%r7,2584(%r15)
	lg	%r7,1368(%r15)
	aghi	%r7,3
	stg	%r7,2600(%r15)
	lg	%r7,1368(%r15)
	aghi	%r7,4
	stg	%r7,2616(%r15)
	lg	%r7,1368(%r15)
	aghi	%r7,5
	stg	%r7,2632(%r15)
	lg	%r7,1368(%r15)
	aghi	%r7,6
	stg	%r7,2648(%r15)
	lg	%r7,1368(%r15)
	aghi	%r7,7
	stg	%r7,2664(%r15)
	lg	%r7,1368(%r15)
	aghi	%r7,8
	stg	%r7,2680(%r15)
	lg	%r7,1368(%r15)
	aghi	%r7,9
	stg	%r7,2696(%r15)
	lg	%r7,1368(%r15)
	aghi	%r7,10
	stg	%r7,2712(%r15)
	lg	%r7,1368(%r15)
	aghi	%r7,11
	stg	%r7,2728(%r15)
	lg	%r7,1368(%r15)
	aghi	%r7,12
	stg	%r7,2744(%r15)
	lg	%r7,1368(%r15)
	aghi	%r7,13
	stg	%r7,2760(%r15)
	lg	%r7,1368(%r15)
	aghi	%r7,14
	stg	%r7,2776(%r15)
	lg	%r7,1368(%r15)
	aghi	%r7,15
	stg	%r7,2792(%r15)
	lg	%r7,1376(%r15)
	aghi	%r7,1
	stg	%r7,2896(%r15)
	lg	%r7,1376(%r15)
	aghi	%r7,2
	stg	%r7,2912(%r15)
	lg	%r7,1376(%r15)
	aghi	%r7,3
	stg	%r7,2928(%r15)
	lg	%r7,1376(%r15)
	aghi	%r7,4
	stg	%r7,2944(%r15)
	lg	%r7,1376(%r15)
	aghi	%r7,5
	stg	%r7,2960(%r15)
	lg	%r7,1376(%r15)
	aghi	%r7,6
	stg	%r7,2976(%r15)
	lg	%r7,1376(%r15)
	aghi	%r7,7
	stg	%r7,2992(%r15)
	lg	%r7,1376(%r15)
	aghi	%r7,8
	stg	%r7,3008(%r15)
	lg	%r7,1376(%r15)
	aghi	%r7,9
	stg	%r7,3024(%r15)
	lg	%r7,1376(%r15)
	aghi	%r7,10
	stg	%r7,3040(%r15)
	stg	%r0,1448(%r15)
	stg	%r2,2304(%r15)
	stg	%r4,160(%r15)
	lg	%r7,1376(%r15)
	agr	%r4,%r3
	aghi	%r7,11
	stg	%r7,2816(%r15)
	lg	%r7,1376(%r15)
	aghi	%r7,12
	stg	%r7,2832(%r15)
	lg	%r7,1376(%r15)
	aghi	%r7,13
	stg	%r7,2848(%r15)
	lg	%r7,1376(%r15)
	aghi	%r7,14
	stg	%r7,2864(%r15)
	lg	%r7,1376(%r15)
	aghi	%r7,15
	stg	%r7,2880(%r15)
	lg	%r7,1384(%r15)
	aghi	%r7,1
	stg	%r7,2904(%r15)
	lg	%r7,1384(%r15)
	aghi	%r7,2
	stg	%r7,2920(%r15)
	lg	%r7,1384(%r15)
	aghi	%r7,3
	stg	%r7,2936(%r15)
	lg	%r7,1384(%r15)
	aghi	%r7,4
	stg	%r7,2952(%r15)
	lg	%r7,1384(%r15)
	aghi	%r7,5
	stg	%r7,2968(%r15)
	lg	%r7,1384(%r15)
	aghi	%r7,6
	stg	%r7,2984(%r15)
	lg	%r7,1384(%r15)
	aghi	%r7,7
	stg	%r7,3000(%r15)
	lg	%r7,1384(%r15)
	aghi	%r7,8
	stg	%r7,3016(%r15)
	lg	%r7,1384(%r15)
	aghi	%r7,9
	stg	%r7,3032(%r15)
	lg	%r7,1384(%r15)
	aghi	%r7,10
	stg	%r7,2808(%r15)
	lg	%r7,1384(%r15)
	aghi	%r7,11
	stg	%r7,2824(%r15)
	lg	%r7,1384(%r15)
	aghi	%r7,12
	stg	%r7,2840(%r15)
	lg	%r7,1384(%r15)
	aghi	%r7,13
	stg	%r7,2856(%r15)
	lg	%r7,1384(%r15)
	aghi	%r7,14
	stg	%r7,2872(%r15)
	lg	%r7,1384(%r15)
	aghi	%r7,15
	stg	%r7,2888(%r15)
	aghik	%r7,%r6,1
	stg	%r7,3072(%r15)
	aghik	%r7,%r6,2
	stg	%r7,3088(%r15)
	aghik	%r7,%r6,3
	stg	%r7,3104(%r15)
	aghik	%r7,%r6,4
	stg	%r7,3120(%r15)
	aghik	%r7,%r6,5
	stg	%r7,3136(%r15)
	aghik	%r7,%r6,6
	stg	%r7,3152(%r15)
	aghik	%r7,%r6,7
	stg	%r7,3168(%r15)
	aghik	%r7,%r6,8
	stg	%r7,3184(%r15)
	aghik	%r7,%r6,9
	stg	%r7,3200(%r15)
	aghik	%r7,%r6,10
	stg	%r7,3216(%r15)
	aghik	%r7,%r6,11
	stg	%r7,3232(%r15)
	aghik	%r7,%r6,12
	stg	%r7,3248(%r15)
	aghik	%r7,%r6,13
	stg	%r7,3264(%r15)
	aghik	%r7,%r6,14
	stg	%r7,3280(%r15)
	lg	%r7,2552(%r15)
	aghi	%r6,15
	stg	%r6,3296(%r15)
	aghik	%r6,%r7,1
	stg	%r6,3080(%r15)
	aghik	%r6,%r7,2
	stg	%r6,3096(%r15)
	aghik	%r6,%r7,3
	stg	%r6,3112(%r15)
	aghik	%r6,%r7,4
	stg	%r6,3128(%r15)
	aghik	%r6,%r7,5
	stg	%r6,3144(%r15)
	aghik	%r6,%r7,6
	stg	%r6,3160(%r15)
	aghik	%r6,%r7,7
	stg	%r6,3176(%r15)
	aghik	%r6,%r7,8
	stg	%r6,3192(%r15)
	aghik	%r6,%r7,9
	stg	%r6,3208(%r15)
	aghik	%r6,%r7,10
	stg	%r6,3224(%r15)
	aghik	%r6,%r7,11
	stg	%r6,3240(%r15)
	aghik	%r6,%r7,12
	stg	%r6,3256(%r15)
	aghik	%r6,%r7,13
	stg	%r6,3272(%r15)
	aghik	%r6,%r7,14
	stg	%r6,3288(%r15)
	aghik	%r6,%r7,15
	stg	%r6,3304(%r15)
	aghik	%r7,%r2,5
	stg	%r7,3424(%r15)
	aghik	%r7,%r5,1
	stg	%r7,1888(%r15)
	aghik	%r7,%r5,2
	stg	%r7,1880(%r15)
	aghik	%r7,%r5,3
	stg	%r7,1872(%r15)
	aghik	%r7,%r5,4
	stg	%r7,1864(%r15)
	aghik	%r7,%r5,5
	stg	%r7,1856(%r15)
	aghik	%r7,%r5,6
	stg	%r7,1848(%r15)
	aghik	%r7,%r5,7
	stg	%r7,2000(%r15)
	aghik	%r7,%r5,8
	stg	%r7,1840(%r15)
	aghik	%r7,%r5,9
	stg	%r7,1984(%r15)
	aghik	%r7,%r5,10
	stg	%r7,1816(%r15)
	aghik	%r6,%r0,1
	stg	%r6,3352(%r15)
	aghik	%r7,%r5,11
	stg	%r7,1904(%r15)
	aghik	%r6,%r0,2
	stg	%r6,3368(%r15)
	aghik	%r7,%r5,12
	stg	%r7,1992(%r15)
	aghik	%r6,%r0,3
	stg	%r6,3384(%r15)
	aghik	%r7,%r5,13
	stg	%r7,2016(%r15)
	aghik	%r6,%r0,4
	stg	%r6,3400(%r15)
	aghik	%r7,%r5,14
	stg	%r7,1800(%r15)
	aghi	%r5,15
	stg	%r5,1824(%r15)
	aghik	%r6,%r0,5
	stg	%r6,3416(%r15)
	l	%r5,1480(%r15)
	aghik	%r6,%r0,6
	stg	%r6,3432(%r15)
	ahik	%r7,%r5,1
	st	%r7,2296(%r15)
	aghik	%r6,%r2,1
	stg	%r6,3360(%r15)
	ahik	%r7,%r5,2
	st	%r7,2300(%r15)
	aghik	%r6,%r2,2
	stg	%r6,3376(%r15)
	ahik	%r7,%r5,3
	st	%r7,2800(%r15)
	aghik	%r6,%r2,3
	stg	%r6,3392(%r15)
	ahik	%r7,%r5,4
	st	%r7,2804(%r15)
	aghik	%r6,%r2,4
	stg	%r6,3408(%r15)
	agrk	%r2,%r9,%r3
	ahik	%r7,%r5,5
	st	%r7,3312(%r15)
	sllg	%r0,%r2,2
	sgrk	%r6,%r0,%r3
	agrk	%r7,%r0,%r3
	lgr	%r3,%r6
	lg	%r6,1392(%r15)
	ahi	%r5,6
	st	%r5,3316(%r15)
	agr	%r3,%r6
	stg	%r3,1712(%r15)
	lgr	%r3,%r7
	agr	%r3,%r6
	stg	%r3,1720(%r15)
	lgr	%r7,%r6
	lgr	%r3,%r0
	agr	%r3,%r6
	stg	%r3,1608(%r15)
	lg	%r6,2048(%r15)
	sllg	%r5,%r2,3
	sllg	%r2,%r2,1
	lgr	%r3,%r2
	agr	%r3,%r7
	stg	%r3,1584(%r15)
	sgrk	%r0,%r5,%r6
	lgr	%r3,%r0
	agr	%r3,%r7
	stg	%r3,1760(%r15)
	lgr	%r3,%r5
	agr	%r3,%r7
	stg	%r3,1656(%r15)
	agrk	%r2,%r5,%r6
	lgr	%r3,%r2
	agr	%r3,%r7
	stg	%r3,1768(%r15)
	lg	%r3,160(%r15)
	sllg	%r5,%r4,2
	agr	%r3,%r7
	stg	%r3,1576(%r15)
	lgr	%r2,%r11
	sgrk	%r3,%r11,%r6
	stg	%r3,160(%r15)
	sgrk	%r11,%r5,%r6
	agr	%r11,%r7
	stg	%r11,1744(%r15)
	agrk	%r0,%r5,%r6
	lgr	%r11,%r0
	agr	%r11,%r7
	stg	%r11,1752(%r15)
	lgr	%r11,%r5
	sllg	%r5,%r3,2
	agr	%r11,%r7
	stg	%r11,1640(%r15)
	sgrk	%r7,%r5,%r6
	lgr	%r3,%r7
	lg	%r7,1392(%r15)
	agrk	%r11,%r5,%r6
	agr	%r3,%r7
	stg	%r3,1776(%r15)
	lgr	%r3,%r11
	agr	%r3,%r7
	stg	%r3,1784(%r15)
	lgr	%r3,%r5
	agr	%r3,%r7
	stg	%r3,1672(%r15)
	sllg	%r0,%r4,1
	lgr	%r3,%r0
	agr	%r3,%r7
	stg	%r3,1600(%r15)
	lgr	%r3,%r4
	agr	%r3,%r7
	stg	%r3,1688(%r15)
	lg	%r3,160(%r15)
	lgr	%r11,%r7
	sllg	%r4,%r3,1
	agr	%r3,%r7
	stg	%r3,1696(%r15)
	lgr	%r3,%r4
	agr	%r3,%r7
	stg	%r3,1616(%r15)
	lgr	%r7,%r2
	agrk	%r3,%r2,%r6
	sllg	%r2,%r3,1
	agr	%r3,%r11
	stg	%r3,1704(%r15)
	lgr	%r3,%r2
	agr	%r3,%r11
	stg	%r3,1632(%r15)
	sllg	%r2,%r6,4
	sgrk	%r3,%r2,%r6
	sllg	%r5,%r3,1
	agr	%r3,%r11
	stg	%r3,1728(%r15)
	lgr	%r3,%r5
	agr	%r3,%r11
	stg	%r3,1680(%r15)
	agrk	%r4,%r2,%r6
	lgr	%r3,%r4
	agr	%r3,%r11
	stg	%r3,1736(%r15)
	lgr	%r3,%r2
	agr	%r3,%r11
	stg	%r3,1624(%r15)
	lgdr	%r3,%f2
	sgrk	%r2,%r10,%r6
	agr	%r3,%r11
	stg	%r3,1648(%r15)
	lgr	%r3,%r2
	agr	%r3,%r11
	stg	%r3,1792(%r15)
	lgdr	%r3,%f0
	lg	%r2,2304(%r15)
	agr	%r7,%r11
	stg	%r7,1592(%r15)
	agr	%r3,%r11
	stg	%r3,1664(%r15)
	aghik	%r3,%r2,6
	stg	%r3,3440(%r15)
	ahik	%r3,%r1,14
	lgr	%r4,%r6
	ahik	%r2,%r1,15
	msgfr	%r6,%r3
	lgr	%r3,%r4
	msgfr	%r3,%r2
	lgr	%r5,%r4
	stg	%r6,3048(%r15)
	ahik	%r2,%r1,17
	stg	%r3,3056(%r15)
	ahik	%r3,%r1,16
	msgfr	%r5,%r3
	ahik	%r3,%r1,18
	lgr	%r11,%r4
	lgr	%r7,%r4
	stg	%r5,3320(%r15)
	msgfr	%r11,%r2
	msgfr	%r7,%r3
	ahik	%r2,%r1,19
	lgr	%r3,%r4
	stg	%r11,3328(%r15)
	stg	%r7,3336(%r15)
	msgfr	%r3,%r2
	lgr	%r5,%r4
	ahik	%r2,%r1,21
	lgr	%r11,%r4
	stg	%r3,3344(%r15)
	ahik	%r3,%r1,20
	msgfr	%r11,%r2
	msgfr	%r5,%r3
	lgr	%r6,%r4
	ahik	%r3,%r1,22
	stg	%r11,3600(%r15)
	stg	%r5,3592(%r15)
	msgfr	%r6,%r3
	ahik	%r2,%r1,23
	lgr	%r7,%r4
	msgfr	%r7,%r2
	stg	%r6,3856(%r15)
	ahik	%r2,%r1,25
	ahik	%r3,%r1,24
	stg	%r7,3864(%r15)
	lgr	%r0,%r4
	msgfr	%r0,%r2
	ahik	%r2,%r1,27
	lgr	%r6,%r4
	lgr	%r11,%r4
	stg	%r0,4864(%r15)
	msgfr	%r11,%r3
	lgr	%r5,%r4
	ahik	%r3,%r1,26
	msgfr	%r4,%r2
	stg	%r11,4856(%r15)
	ahik	%r2,%r1,28
	msgfr	%r5,%r3
	stg	%r4,5120(%r15)
	ahi	%r1,29
	lgr	%r3,%r6
	stg	%r5,5112(%r15)
	msgfr	%r3,%r2
	lgr	%r2,%r6
	msgfr	%r6,%r1
	lg	%r7,2304(%r15)
	stg	%r3,5376(%r15)
	stg	%r6,5384(%r15)
	lgr	%r1,%r6
	lg	%r6,1448(%r15)
	aghi	%r6,7
	stg	%r6,3448(%r15)
	lgr	%r6,%r7
	aghi	%r6,7
	stg	%r6,3456(%r15)
	lg	%r6,1448(%r15)
	aghi	%r6,8
	stg	%r6,3464(%r15)
	lgr	%r6,%r7
	aghi	%r6,8
	stg	%r6,3472(%r15)
	lg	%r6,1448(%r15)
	aghi	%r6,9
	stg	%r6,3480(%r15)
	lgr	%r6,%r7
	aghi	%r6,9
	stg	%r6,3488(%r15)
	lg	%r6,1448(%r15)
	aghi	%r6,10
	stg	%r6,3496(%r15)
	lgr	%r6,%r7
	aghi	%r6,10
	stg	%r6,3504(%r15)
	lg	%r6,1448(%r15)
	aghi	%r6,11
	stg	%r6,3512(%r15)
	lgr	%r6,%r7
	aghi	%r6,11
	stg	%r6,3520(%r15)
	lg	%r6,1448(%r15)
	aghi	%r6,12
	stg	%r6,3528(%r15)
	lgr	%r6,%r7
	aghi	%r6,12
	stg	%r6,3536(%r15)
	lg	%r6,1448(%r15)
	aghi	%r6,13
	stg	%r6,3544(%r15)
	lgr	%r6,%r7
	aghi	%r6,13
	stg	%r6,3552(%r15)
	lg	%r6,1448(%r15)
	aghi	%r6,14
	stg	%r6,3560(%r15)
	lgr	%r6,%r7
	aghi	%r6,14
	stg	%r6,3568(%r15)
	lg	%r6,1448(%r15)
	aghi	%r6,15
	stg	%r6,3576(%r15)
	lgr	%r6,%r7
	lg	%r7,3048(%r15)
	aghi	%r6,15
	stg	%r6,3584(%r15)
	lgr	%r6,%r7
	aghi	%r6,1
	stg	%r6,3608(%r15)
	lgr	%r6,%r7
	aghi	%r6,2
	stg	%r6,3624(%r15)
	lgr	%r6,%r7
	aghi	%r6,3
	stg	%r6,3640(%r15)
	lgr	%r6,%r7
	aghi	%r6,4
	stg	%r6,3656(%r15)
	lgr	%r6,%r7
	aghi	%r6,5
	stg	%r6,3672(%r15)
	lgr	%r6,%r7
	aghi	%r6,6
	stg	%r6,3688(%r15)
	lgr	%r6,%r7
	aghi	%r6,7
	stg	%r6,3704(%r15)
	lgr	%r6,%r7
	aghi	%r6,8
	stg	%r6,3720(%r15)
	lgr	%r6,%r7
	aghi	%r6,9
	stg	%r6,3736(%r15)
	lgr	%r6,%r7
	aghi	%r6,10
	stg	%r6,3752(%r15)
	lgr	%r6,%r7
	aghi	%r6,11
	stg	%r6,3768(%r15)
	lgr	%r6,%r7
	aghi	%r6,12
	stg	%r6,3784(%r15)
	lgr	%r6,%r7
	aghi	%r6,13
	stg	%r6,3800(%r15)
	lgr	%r6,%r7
	aghi	%r6,14
	stg	%r6,3816(%r15)
	lgr	%r6,%r7
	lg	%r7,3056(%r15)
	aghi	%r6,15
	stg	%r6,3832(%r15)
	lgr	%r6,%r7
	aghi	%r6,1
	stg	%r6,3616(%r15)
	lgr	%r6,%r7
	aghi	%r6,2
	stg	%r6,3632(%r15)
	lgr	%r6,%r7
	aghi	%r6,3
	stg	%r6,3648(%r15)
	lgr	%r6,%r7
	aghi	%r6,4
	stg	%r6,3664(%r15)
	lgr	%r6,%r7
	aghi	%r6,5
	stg	%r6,3680(%r15)
	lgr	%r6,%r7
	aghi	%r6,6
	stg	%r6,3696(%r15)
	lgr	%r6,%r7
	aghi	%r6,7
	stg	%r6,3712(%r15)
	lgr	%r6,%r7
	aghi	%r6,8
	stg	%r6,3728(%r15)
	lgr	%r6,%r7
	aghi	%r6,9
	stg	%r6,3744(%r15)
	lgr	%r6,%r7
	aghi	%r6,10
	stg	%r6,3760(%r15)
	lgr	%r6,%r7
	aghi	%r6,11
	stg	%r6,3776(%r15)
	lgr	%r6,%r7
	aghi	%r6,12
	stg	%r6,3792(%r15)
	lgr	%r6,%r7
	aghi	%r6,13
	stg	%r6,3808(%r15)
	lgr	%r6,%r7
	aghi	%r6,14
	stg	%r6,3824(%r15)
	lgr	%r6,%r7
	lg	%r7,3320(%r15)
	aghi	%r6,15
	stg	%r6,3840(%r15)
	lgr	%r6,%r7
	aghi	%r6,1
	stg	%r6,3872(%r15)
	lgr	%r6,%r7
	aghi	%r6,2
	stg	%r6,3888(%r15)
	lgr	%r6,%r7
	aghi	%r6,3
	stg	%r6,3904(%r15)
	lgr	%r6,%r7
	aghi	%r6,4
	stg	%r6,3920(%r15)
	lgr	%r6,%r7
	aghi	%r6,5
	stg	%r6,3936(%r15)
	lgr	%r6,%r7
	aghi	%r6,6
	stg	%r6,3952(%r15)
	lgr	%r6,%r7
	aghi	%r6,7
	stg	%r6,3968(%r15)
	lgr	%r6,%r7
	aghi	%r6,8
	stg	%r6,3984(%r15)
	lgr	%r6,%r7
	aghi	%r6,9
	stg	%r6,4000(%r15)
	lgr	%r6,%r7
	aghi	%r6,10
	stg	%r6,4016(%r15)
	lgr	%r6,%r7
	aghi	%r6,11
	stg	%r6,4032(%r15)
	lgr	%r6,%r7
	aghi	%r6,12
	stg	%r6,4048(%r15)
	lgr	%r6,%r7
	aghi	%r6,13
	stg	%r6,4064(%r15)
	lgr	%r6,%r7
	aghi	%r6,14
	stg	%r6,4080(%r15)
	lgr	%r6,%r7
	lg	%r7,3328(%r15)
	aghi	%r6,15
	stg	%r6,4096(%r15)
	lgr	%r6,%r7
	aghi	%r6,1
	stg	%r6,3880(%r15)
	lgr	%r6,%r7
	aghi	%r6,2
	stg	%r6,3896(%r15)
	lgr	%r6,%r7
	aghi	%r6,3
	stg	%r6,3912(%r15)
	lgr	%r6,%r7
	aghi	%r6,4
	stg	%r6,3928(%r15)
	lgr	%r6,%r7
	aghi	%r6,5
	stg	%r6,3944(%r15)
	lgr	%r6,%r7
	aghi	%r6,6
	stg	%r6,3960(%r15)
	lgr	%r6,%r7
	aghi	%r6,7
	stg	%r6,3976(%r15)
	lgr	%r6,%r7
	aghi	%r6,8
	stg	%r6,3992(%r15)
	lgr	%r6,%r7
	aghi	%r6,9
	stg	%r6,4008(%r15)
	lgr	%r6,%r7
	aghi	%r6,10
	stg	%r6,4024(%r15)
	lgr	%r6,%r7
	aghi	%r6,11
	stg	%r6,4040(%r15)
	lgr	%r6,%r7
	aghi	%r6,12
	stg	%r6,4056(%r15)
	lgr	%r6,%r7
	aghi	%r6,13
	stg	%r6,4072(%r15)
	lgr	%r6,%r7
	aghi	%r6,14
	stg	%r6,4088(%r15)
	lgr	%r6,%r7
	lg	%r7,3336(%r15)
	aghi	%r6,15
	stg	%r6,4104(%r15)
	lgr	%r6,%r7
	aghi	%r6,1
	stg	%r6,4120(%r15)
	lgr	%r6,%r7
	aghi	%r6,2
	stg	%r6,4136(%r15)
	lgr	%r6,%r7
	aghi	%r6,3
	stg	%r6,4152(%r15)
	lgr	%r6,%r7
	aghi	%r6,4
	stg	%r6,4168(%r15)
	lgr	%r6,%r7
	aghi	%r6,5
	stg	%r6,4184(%r15)
	lgr	%r6,%r7
	aghi	%r6,6
	stg	%r6,4200(%r15)
	lgr	%r6,%r7
	aghi	%r6,7
	stg	%r6,4216(%r15)
	lgr	%r6,%r7
	aghi	%r6,8
	stg	%r6,4232(%r15)
	lgr	%r6,%r7
	aghi	%r6,9
	stg	%r6,4248(%r15)
	lgr	%r6,%r7
	aghi	%r6,10
	stg	%r6,4264(%r15)
	lgr	%r6,%r7
	aghi	%r6,11
	stg	%r6,4280(%r15)
	lgr	%r6,%r7
	aghi	%r6,12
	stg	%r6,4296(%r15)
	lgr	%r6,%r7
	aghi	%r6,13
	stg	%r6,4312(%r15)
	lgr	%r6,%r7
	aghi	%r6,14
	stg	%r6,4328(%r15)
	lgr	%r6,%r7
	lg	%r7,3344(%r15)
	aghi	%r6,15
	stg	%r6,4344(%r15)
	lgr	%r6,%r7
	aghi	%r6,1
	stg	%r6,4128(%r15)
	lgr	%r6,%r7
	aghi	%r6,2
	stg	%r6,4144(%r15)
	lgr	%r6,%r7
	aghi	%r6,3
	stg	%r6,4160(%r15)
	lgr	%r6,%r7
	aghi	%r6,4
	stg	%r6,4176(%r15)
	lgr	%r6,%r7
	aghi	%r6,5
	stg	%r6,4192(%r15)
	lgr	%r6,%r7
	aghi	%r6,6
	stg	%r6,4208(%r15)
	lgr	%r6,%r7
	aghi	%r6,7
	stg	%r6,4224(%r15)
	lgr	%r6,%r7
	aghi	%r6,8
	stg	%r6,4240(%r15)
	lgr	%r6,%r7
	aghi	%r6,9
	stg	%r6,4256(%r15)
	lgr	%r6,%r7
	aghi	%r6,10
	stg	%r6,4272(%r15)
	lgr	%r6,%r7
	aghi	%r6,11
	stg	%r6,4288(%r15)
	lgr	%r6,%r7
	aghi	%r6,12
	stg	%r6,4304(%r15)
	lgr	%r6,%r7
	aghi	%r6,13
	stg	%r6,4320(%r15)
	lgr	%r6,%r7
	aghi	%r6,14
	stg	%r6,4336(%r15)
	lgr	%r6,%r7
	lg	%r7,3592(%r15)
	aghi	%r6,15
	stg	%r6,4352(%r15)
	lgr	%r6,%r7
	aghi	%r6,1
	stg	%r6,4360(%r15)
	lgr	%r6,%r7
	aghi	%r6,2
	stg	%r6,4376(%r15)
	lgr	%r6,%r7
	aghi	%r6,3
	stg	%r6,4392(%r15)
	lgr	%r6,%r7
	aghi	%r6,4
	stg	%r6,4408(%r15)
	lgr	%r6,%r7
	aghi	%r6,5
	stg	%r6,4424(%r15)
	lgr	%r6,%r7
	aghi	%r6,6
	stg	%r6,4440(%r15)
	lgr	%r6,%r7
	aghi	%r6,7
	stg	%r6,4456(%r15)
	lgr	%r6,%r7
	aghi	%r6,8
	stg	%r6,4472(%r15)
	lgr	%r6,%r7
	aghi	%r6,9
	stg	%r6,4488(%r15)
	lgr	%r6,%r7
	aghi	%r6,10
	stg	%r6,4504(%r15)
	lgr	%r6,%r7
	aghi	%r6,11
	stg	%r6,4520(%r15)
	lgr	%r6,%r7
	aghi	%r6,12
	stg	%r6,4536(%r15)
	lgr	%r6,%r7
	aghi	%r6,13
	stg	%r6,4552(%r15)
	lgr	%r6,%r7
	aghi	%r6,14
	stg	%r6,4568(%r15)
	lgr	%r6,%r7
	lg	%r7,3600(%r15)
	aghi	%r6,15
	stg	%r6,4584(%r15)
	lgr	%r6,%r7
	aghi	%r6,1
	stg	%r6,4368(%r15)
	lgr	%r6,%r7
	aghi	%r6,2
	stg	%r6,4384(%r15)
	lgr	%r6,%r7
	aghi	%r6,3
	stg	%r6,4400(%r15)
	lgr	%r6,%r7
	aghi	%r6,4
	stg	%r6,4416(%r15)
	lgr	%r6,%r7
	aghi	%r6,5
	stg	%r6,4432(%r15)
	lgr	%r6,%r7
	aghi	%r6,6
	stg	%r6,4448(%r15)
	lgr	%r6,%r7
	aghi	%r6,7
	stg	%r6,4464(%r15)
	lgr	%r6,%r7
	aghi	%r6,8
	stg	%r6,4480(%r15)
	lgr	%r6,%r7
	aghi	%r6,9
	stg	%r6,4496(%r15)
	lgr	%r6,%r7
	aghi	%r6,10
	stg	%r6,4512(%r15)
	lgr	%r6,%r7
	aghi	%r6,11
	stg	%r6,4528(%r15)
	lgr	%r6,%r7
	aghi	%r6,12
	stg	%r6,4544(%r15)
	lgr	%r6,%r7
	aghi	%r6,13
	stg	%r6,4560(%r15)
	lgr	%r6,%r7
	aghi	%r6,14
	stg	%r6,4576(%r15)
	lgr	%r6,%r7
	aghi	%r6,15
	stg	%r6,4592(%r15)
	lg	%r6,3856(%r15)
	vl	%v12,.L634-.L632(%r13),3
	aghik	%r7,%r6,1
	stg	%r7,4608(%r15)
	aghik	%r7,%r6,2
	stg	%r7,4624(%r15)
	aghik	%r7,%r6,3
	stg	%r7,4640(%r15)
	aghik	%r7,%r6,4
	stg	%r7,4656(%r15)
	aghik	%r7,%r6,5
	stg	%r7,4672(%r15)
	aghik	%r7,%r6,6
	stg	%r7,4688(%r15)
	aghik	%r7,%r6,7
	stg	%r7,4704(%r15)
	aghik	%r7,%r6,8
	stg	%r7,4720(%r15)
	aghik	%r7,%r6,9
	stg	%r7,4736(%r15)
	aghik	%r7,%r6,10
	stg	%r7,4752(%r15)
	aghik	%r7,%r6,11
	stg	%r7,4768(%r15)
	aghik	%r7,%r6,12
	stg	%r7,4784(%r15)
	aghik	%r7,%r6,13
	stg	%r7,4800(%r15)
	aghik	%r7,%r6,14
	stg	%r7,4816(%r15)
	lg	%r7,3864(%r15)
	aghi	%r6,15
	stg	%r6,4832(%r15)
	aghik	%r6,%r7,1
	stg	%r6,4616(%r15)
	aghik	%r6,%r7,2
	stg	%r6,4632(%r15)
	aghik	%r6,%r7,3
	stg	%r6,4648(%r15)
	aghik	%r6,%r7,4
	stg	%r6,4664(%r15)
	aghik	%r6,%r7,5
	stg	%r6,4680(%r15)
	aghik	%r6,%r7,6
	stg	%r6,4696(%r15)
	aghik	%r6,%r7,7
	stg	%r6,4712(%r15)
	aghik	%r6,%r7,8
	stg	%r6,4728(%r15)
	aghik	%r6,%r7,9
	stg	%r6,4744(%r15)
	aghik	%r6,%r7,10
	stg	%r6,4760(%r15)
	aghik	%r6,%r7,11
	stg	%r6,4776(%r15)
	aghik	%r6,%r7,12
	stg	%r6,4792(%r15)
	aghik	%r6,%r7,13
	stg	%r6,4808(%r15)
	aghik	%r6,%r7,14
	stg	%r6,4824(%r15)
	aghik	%r6,%r7,15
	stg	%r6,4840(%r15)
	aghik	%r6,%r11,1
	stg	%r6,4872(%r15)
	aghik	%r6,%r11,2
	stg	%r6,4888(%r15)
	aghik	%r6,%r11,3
	stg	%r6,4904(%r15)
	aghik	%r6,%r11,4
	stg	%r6,4920(%r15)
	aghik	%r6,%r11,5
	stg	%r6,4936(%r15)
	aghik	%r6,%r11,6
	stg	%r6,4952(%r15)
	aghik	%r6,%r11,7
	stg	%r6,4968(%r15)
	aghik	%r6,%r11,8
	stg	%r6,4984(%r15)
	aghik	%r6,%r11,9
	stg	%r6,5000(%r15)
	aghik	%r6,%r11,10
	stg	%r6,5016(%r15)
	aghik	%r6,%r11,11
	stg	%r6,5032(%r15)
	aghik	%r6,%r11,12
	stg	%r6,5048(%r15)
	aghik	%r6,%r11,13
	stg	%r6,5064(%r15)
	aghik	%r6,%r11,14
	stg	%r6,5080(%r15)
	aghik	%r6,%r11,15
	stg	%r6,5096(%r15)
	aghik	%r6,%r0,1
	stg	%r6,4880(%r15)
	aghik	%r6,%r0,2
	stg	%r6,4896(%r15)
	aghik	%r6,%r0,3
	stg	%r6,4912(%r15)
	aghik	%r6,%r0,4
	stg	%r6,4928(%r15)
	aghik	%r6,%r0,5
	stg	%r6,4944(%r15)
	aghik	%r6,%r0,6
	stg	%r6,4960(%r15)
	aghik	%r6,%r0,7
	stg	%r6,4976(%r15)
	aghik	%r6,%r0,8
	stg	%r6,4992(%r15)
	aghik	%r6,%r0,9
	stg	%r6,5008(%r15)
	aghik	%r6,%r0,10
	stg	%r6,5024(%r15)
	aghik	%r6,%r0,11
	stg	%r6,5040(%r15)
	aghik	%r6,%r0,12
	stg	%r6,5056(%r15)
	aghik	%r6,%r0,13
	stg	%r6,5072(%r15)
	aghik	%r6,%r0,14
	stg	%r6,5088(%r15)
	aghik	%r6,%r0,15
	stg	%r6,5104(%r15)
	aghik	%r6,%r5,1
	stg	%r6,5128(%r15)
	aghik	%r6,%r5,2
	stg	%r6,5144(%r15)
	aghik	%r6,%r5,3
	stg	%r6,5160(%r15)
	aghik	%r6,%r5,4
	stg	%r6,5176(%r15)
	aghik	%r6,%r5,5
	stg	%r6,5192(%r15)
	aghik	%r6,%r5,6
	stg	%r6,5208(%r15)
	aghik	%r6,%r5,7
	stg	%r6,5224(%r15)
	aghik	%r6,%r5,8
	stg	%r6,5240(%r15)
	aghik	%r6,%r5,9
	stg	%r6,5256(%r15)
	aghik	%r6,%r5,10
	stg	%r6,5272(%r15)
	aghik	%r6,%r5,11
	stg	%r6,5288(%r15)
	aghik	%r6,%r5,12
	stg	%r6,5304(%r15)
	aghik	%r6,%r5,13
	stg	%r6,5320(%r15)
	aghik	%r6,%r5,14
	stg	%r6,5336(%r15)
	aghik	%r6,%r5,15
	stg	%r6,5352(%r15)
	aghik	%r6,%r4,1
	stg	%r6,5136(%r15)
	aghik	%r6,%r4,2
	stg	%r6,5152(%r15)
	aghik	%r6,%r4,3
	stg	%r6,5168(%r15)
	aghik	%r6,%r4,4
	stg	%r6,5184(%r15)
	aghik	%r6,%r4,5
	stg	%r6,5200(%r15)
	aghik	%r6,%r4,6
	stg	%r6,5216(%r15)
	aghik	%r6,%r4,7
	stg	%r6,5232(%r15)
	aghik	%r6,%r4,8
	stg	%r6,5248(%r15)
	aghik	%r6,%r4,9
	stg	%r6,5264(%r15)
	aghik	%r6,%r4,10
	stg	%r6,5280(%r15)
	aghik	%r6,%r4,11
	stg	%r6,5296(%r15)
	aghik	%r6,%r4,12
	stg	%r6,5312(%r15)
	aghik	%r6,%r4,13
	stg	%r6,5328(%r15)
	aghik	%r6,%r4,14
	stg	%r6,5344(%r15)
	aghik	%r6,%r4,15
	stg	%r6,5360(%r15)
	l	%r4,1480(%r15)
	aghik	%r6,%r3,1
	stg	%r6,5392(%r15)
	ahik	%r5,%r4,7
	st	%r5,3848(%r15)
	ahik	%r5,%r4,8
	st	%r5,3852(%r15)
	ahik	%r5,%r4,9
	sty	%r5,4112(%r15)
	ahik	%r5,%r4,10
	sty	%r5,4600(%r15)
	ahik	%r5,%r4,11
	sty	%r5,4604(%r15)
	aghik	%r6,%r1,1
	stg	%r6,5400(%r15)
	ahik	%r5,%r4,12
	sty	%r5,4848(%r15)
	aghik	%r6,%r3,2
	ahik	%r5,%r4,13
	ahi	%r4,14
	sty	%r4,5372(%r15)
	aghik	%r4,%r1,2
	stg	%r4,5416(%r15)
	aghik	%r4,%r3,3
	stg	%r4,5424(%r15)
	aghik	%r4,%r1,3
	stg	%r4,5432(%r15)
	aghik	%r4,%r3,4
	stg	%r4,5440(%r15)
	aghik	%r4,%r1,4
	stg	%r4,5448(%r15)
	aghik	%r4,%r3,5
	stg	%r4,5456(%r15)
	aghik	%r4,%r1,5
	stg	%r4,5464(%r15)
	aghik	%r4,%r3,6
	stg	%r4,5472(%r15)
	aghik	%r4,%r1,6
	stg	%r4,5480(%r15)
	aghik	%r4,%r3,7
	stg	%r4,5488(%r15)
	aghik	%r4,%r1,7
	stg	%r4,5496(%r15)
	aghik	%r4,%r3,8
	stg	%r4,5504(%r15)
	aghik	%r4,%r1,8
	stg	%r4,5512(%r15)
	aghik	%r4,%r3,9
	stg	%r4,5520(%r15)
	aghik	%r4,%r1,9
	stg	%r4,5528(%r15)
	aghik	%r4,%r3,10
	stg	%r4,5536(%r15)
	aghik	%r4,%r1,10
	stg	%r4,5544(%r15)
	aghik	%r4,%r3,11
	stg	%r4,5552(%r15)
	aghik	%r4,%r1,11
	stg	%r4,5560(%r15)
	aghik	%r4,%r3,12
	stg	%r4,5568(%r15)
	aghik	%r4,%r1,12
	stg	%r4,5576(%r15)
	aghik	%r4,%r3,13
	stg	%r4,5584(%r15)
	aghik	%r4,%r1,13
	stg	%r4,5592(%r15)
	aghik	%r4,%r3,14
	stg	%r4,5600(%r15)
	aghi	%r3,15
	stg	%r3,5616(%r15)
	aghik	%r3,%r1,15
	stg	%r3,5624(%r15)
	l	%r0,1540(%r15)
	l	%r3,1536(%r15)
	aghik	%r4,%r1,14
	ahik	%r1,%r3,-1
	lgr	%r3,%r0
	risbgn	%r3,%r3,26,128+53,6
	stg	%r3,1568(%r15)
	lgr	%r3,%r0
	risbgn	%r3,%r3,26,128+53,6
	stg	%r3,1560(%r15)
	ly	%r3,4116(%r15)
	chsi	1404(%r15),1
	risbgn	%r1,%r1,26,128+57,6
	la	%r1,64(%r1)
	locghinh	%r1,64
	stg	%r1,1488(%r15)
	sllk	%r1,%r3,4
	lg	%r3,1464(%r15)
	lgfr	%r1,%r1
	stg	%r3,480(%r15)
	sllg	%r3,%r1,1
	lg	%r1,1392(%r15)
	stg	%r6,5408(%r15)
	sty	%r5,5368(%r15)
	stg	%r4,5608(%r15)
	stg	%r3,1472(%r15)
	sthy	%r8,4854(%r15)
	lghi	%r0,0
	agr	%r1,%r2
	stg	%r1,1520(%r15)
	lgr	%r11,%r0
	lgr	%r0,%r10
.L462:
	lg	%r7,1392(%r15)
	lg	%r6,1400(%r15)
	agrk	%r3,%r7,%r11
	cijle	%r6,1,.L513
	lg	%r10,480(%r15)
	lg	%r2,1496(%r15)
	lgr	%r4,%r10
	agr	%r2,%r11
	ag	%r4,1504(%r15)
	agr	%r2,%r7
	lhi	%r5,0
	clgr	%r10,%r2
	alcr	%r5,%r5
	lg	%r2,1512(%r15)
	agr	%r2,%r11
	agr	%r2,%r7
	clgr	%r2,%r4
	lhi	%r2,0
	alcr	%r2,%r2
	or	%r2,%r5
	chi	%r6,63
	lhi	%r5,0
	lochih	%r5,1
	nrk	%r2,%r5,%r2
	je	.L454
	lg	%r2,1544(%r15)
	lg	%r5,1552(%r15)
	agrk	%r2,%r3,%r2
	clgr	%r10,%r2
	lhi	%r2,0
	alcr	%r2,%r2
	agrk	%r5,%r3,%r5
	clgr	%r5,%r4
	lhi	%r4,0
	alcr	%r4,%r4
	or	%r2,%r4
	je	.L454
	lg	%r2,1520(%r15)
	stg	%r10,160(%r15)
	agrk	%r4,%r2,%r11
	lg	%r2,1576(%r15)
	stg	%r11,1424(%r15)
	agrk	%r2,%r11,%r2
	stg	%r2,224(%r15)
	lg	%r2,1584(%r15)
	stg	%r8,1440(%r15)
	agrk	%r6,%r11,%r2
	lg	%r2,1592(%r15)
	stg	%r3,1432(%r15)
	agrk	%r7,%r11,%r2
	lg	%r2,1600(%r15)
	agrk	%r2,%r11,%r2
	stg	%r2,232(%r15)
	lg	%r2,1608(%r15)
	agrk	%r2,%r11,%r2
	stg	%r2,240(%r15)
	lg	%r2,1616(%r15)
	agrk	%r5,%r11,%r2
	lg	%r2,1624(%r15)
	stg	%r5,456(%r15)
	agrk	%r2,%r11,%r2
	stg	%r2,248(%r15)
	lg	%r2,1632(%r15)
	agrk	%r2,%r11,%r2
	stg	%r2,256(%r15)
	lg	%r2,1640(%r15)
	agrk	%r2,%r11,%r2
	stg	%r2,264(%r15)
	lg	%r2,1648(%r15)
	agrk	%r2,%r11,%r2
	stg	%r2,280(%r15)
	lg	%r2,1656(%r15)
	agrk	%r2,%r11,%r2
	stg	%r2,296(%r15)
	lg	%r2,1664(%r15)
	agrk	%r2,%r11,%r2
	stg	%r2,312(%r15)
	lg	%r2,1672(%r15)
	agrk	%r2,%r11,%r2
	stg	%r2,328(%r15)
	lg	%r2,1680(%r15)
	agrk	%r2,%r11,%r2
	stg	%r2,464(%r15)
	lg	%r2,1688(%r15)
	agrk	%r2,%r11,%r2
	stg	%r2,344(%r15)
	lg	%r2,1696(%r15)
	agrk	%r2,%r11,%r2
	stg	%r2,360(%r15)
	lg	%r2,1704(%r15)
	agrk	%r2,%r11,%r2
	stg	%r2,376(%r15)
	lg	%r2,1712(%r15)
	agrk	%r2,%r11,%r2
	stg	%r2,392(%r15)
	lg	%r2,1720(%r15)
	agrk	%r2,%r11,%r2
	stg	%r2,400(%r15)
	lg	%r2,1728(%r15)
	agrk	%r2,%r11,%r2
	stg	%r2,408(%r15)
	lg	%r2,1736(%r15)
	agrk	%r2,%r11,%r2
	stg	%r2,416(%r15)
	lg	%r2,1744(%r15)
	agrk	%r2,%r11,%r2
	stg	%r2,424(%r15)
	lg	%r2,1752(%r15)
	agrk	%r2,%r11,%r2
	stg	%r2,432(%r15)
	lg	%r2,1760(%r15)
	agrk	%r2,%r11,%r2
	stg	%r2,440(%r15)
	lg	%r2,1768(%r15)
	agrk	%r2,%r11,%r2
	stg	%r2,448(%r15)
	lg	%r2,1776(%r15)
	agrk	%r2,%r11,%r2
	stg	%r2,176(%r15)
	lg	%r2,1784(%r15)
	agrk	%r2,%r11,%r2
	stg	%r2,192(%r15)
	lg	%r2,1792(%r15)
	agrk	%r2,%r11,%r2
	stg	%r2,208(%r15)
	lg	%r2,1568(%r15)
	lg	%r11,176(%r15)
	agr	%r2,%r10
	stg	%r2,1408(%r15)
	lg	%r8,208(%r15)
	lgr	%r2,%r10
	lg	%r10,192(%r15)
.L457:
	vzero	%v10
	lg	%r1,224(%r15)
	vlr	%v22,%v10
	vlr	%v0,%v10
	vlr	%v15,%v10
	vlr	%v3,%v10
	vlr	%v18,%v10
	vlr	%v21,%v10
	vlr	%v11,%v10
	vlr	%v7,%v10
	vlr	%v20,%v10
	vlr	%v24,%v10
	vlr	%v13,%v10
	vlr	%v6,%v10
	vlr	%v16,%v10
	vlr	%v17,%v10
	vlr	%v9,%v10
	vleb	%v10,0(%r3),0
	vleb	%v10,0(%r3,%r9),1
	vleb	%v0,1(%r3),0
	vleb	%v10,0(%r1),2
	lg	%r1,224(%r15)
	vleb	%v0,1(%r3,%r9),1
	vleb	%v3,2(%r3),0
	vleb	%v0,1(%r1),2
	lg	%r1,224(%r15)
	vleb	%v3,2(%r3,%r9),1
	vleb	%v21,3(%r3),0
	vleb	%v3,2(%r1),2
	lg	%r1,224(%r15)
	vleb	%v21,3(%r3,%r9),1
	vleb	%v7,4(%r3),0
	vleb	%v21,3(%r1),2
	lg	%r1,224(%r15)
	vleb	%v7,4(%r3,%r9),1
	vleb	%v24,5(%r3),0
	vleb	%v7,4(%r1),2
	lg	%r1,224(%r15)
	vleb	%v24,5(%r3,%r9),1
	vleb	%v6,6(%r3),0
	vleb	%v24,5(%r1),2
	lg	%r1,224(%r15)
	vleb	%v6,6(%r3,%r9),1
	vleb	%v17,7(%r3),0
	vleb	%v6,6(%r1),2
	lg	%r1,224(%r15)
	lg	%r5,344(%r15)
	vleb	%v22,0(%r4),0
	vleb	%v15,1(%r4),0
	vleb	%v18,2(%r4),0
	vleb	%v11,3(%r4),0
	vleb	%v20,4(%r4),0
	vleb	%v13,5(%r4),0
	vleb	%v16,6(%r4),0
	vleb	%v9,7(%r4),0
	vleb	%v17,7(%r3,%r9),1
	vleb	%v22,0(%r4,%r9),1
	vleb	%v15,1(%r4,%r9),1
	vleb	%v18,2(%r4,%r9),1
	vleb	%v11,3(%r4,%r9),1
	vleb	%v20,4(%r4,%r9),1
	vleb	%v13,5(%r4,%r9),1
	vleb	%v16,6(%r4,%r9),1
	vleb	%v9,7(%r4,%r9),1
	vleb	%v17,7(%r1),2
	lg	%r1,360(%r15)
	vleb	%v22,0(%r5),2
	vleb	%v15,1(%r5),2
	vleb	%v18,2(%r5),2
	vleb	%v11,3(%r5),2
	vleb	%v20,4(%r5),2
	vleb	%v13,5(%r5),2
	vleb	%v16,6(%r5),2
	vleb	%v9,7(%r5),2
	vleb	%v22,0(%r1),3
	vleb	%v15,1(%r1),3
	vleb	%v18,2(%r1),3
	vleb	%v11,3(%r1),3
	vleb	%v20,4(%r1),3
	vleb	%v13,5(%r1),3
	vleb	%v16,6(%r1),3
	vleb	%v9,7(%r1),3
	lg	%r1,376(%r15)
	lg	%r5,392(%r15)
	vleb	%v10,0(%r6),3
	vleb	%v0,1(%r6),3
	vleb	%v3,2(%r6),3
	vleb	%v21,3(%r6),3
	vleb	%v7,4(%r6),3
	vleb	%v24,5(%r6),3
	vleb	%v6,6(%r6),3
	vleb	%v17,7(%r6),3
	vleb	%v22,0(%r1),4
	vleb	%v15,1(%r1),4
	vleb	%v18,2(%r1),4
	vleb	%v11,3(%r1),4
	vleb	%v20,4(%r1),4
	vleb	%v13,5(%r1),4
	vleb	%v16,6(%r1),4
	vleb	%v9,7(%r1),4
	lg	%r1,232(%r15)
	vleb	%v10,0(%r7),4
	vleb	%v0,1(%r7),4
	vleb	%v3,2(%r7),4
	vleb	%v21,3(%r7),4
	vleb	%v7,4(%r7),4
	vleb	%v24,5(%r7),4
	vleb	%v6,6(%r7),4
	vleb	%v17,7(%r7),4
	vleb	%v22,0(%r5),5
	vleb	%v15,1(%r5),5
	vleb	%v18,2(%r5),5
	vleb	%v11,3(%r5),5
	vleb	%v20,4(%r5),5
	vleb	%v13,5(%r5),5
	vleb	%v16,6(%r5),5
	vleb	%v9,7(%r5),5
	lg	%r5,240(%r15)
	vleb	%v10,0(%r1),5
	vleb	%v0,1(%r1),5
	vleb	%v3,2(%r1),5
	vleb	%v21,3(%r1),5
	vleb	%v7,4(%r1),5
	vleb	%v24,5(%r1),5
	vleb	%v6,6(%r1),5
	vleb	%v17,7(%r1),5
	lg	%r1,400(%r15)
	vleb	%v10,0(%r5),6
	vleb	%v0,1(%r5),6
	vleb	%v3,2(%r5),6
	vleb	%v21,3(%r5),6
	vleb	%v7,4(%r5),6
	vleb	%v24,5(%r5),6
	vleb	%v6,6(%r5),6
	vleb	%v17,7(%r5),6
	lg	%r5,408(%r15)
	vleb	%v22,0(%r1),6
	vleb	%v15,1(%r1),6
	vleb	%v18,2(%r1),6
	vleb	%v11,3(%r1),6
	vleb	%v20,4(%r1),6
	vleb	%v13,5(%r1),6
	vleb	%v16,6(%r1),6
	vleb	%v9,7(%r1),6
	lg	%r1,456(%r15)
	vleb	%v22,0(%r5),7
	vleb	%v15,1(%r5),7
	vleb	%v18,2(%r5),7
	vleb	%v11,3(%r5),7
	vleb	%v20,4(%r5),7
	vleb	%v13,5(%r5),7
	vleb	%v16,6(%r5),7
	vleb	%v9,7(%r5),7
	lg	%r5,248(%r15)
	vleb	%v10,0(%r1),7
	vleb	%v0,1(%r1),7
	vleb	%v3,2(%r1),7
	vleb	%v21,3(%r1),7
	vleb	%v7,4(%r1),7
	vleb	%v24,5(%r1),7
	vleb	%v6,6(%r1),7
	vleb	%v17,7(%r1),7
	lg	%r1,416(%r15)
	vleb	%v10,0(%r5),8
	vleb	%v0,1(%r5),8
	vleb	%v3,2(%r5),8
	vleb	%v21,3(%r5),8
	vleb	%v7,4(%r5),8
	vleb	%v24,5(%r5),8
	vleb	%v6,6(%r5),8
	vleb	%v17,7(%r5),8
	lg	%r5,424(%r15)
	vleb	%v22,0(%r1),8
	vleb	%v15,1(%r1),8
	vleb	%v18,2(%r1),8
	vleb	%v11,3(%r1),8
	vleb	%v20,4(%r1),8
	vleb	%v13,5(%r1),8
	vleb	%v16,6(%r1),8
	vleb	%v9,7(%r1),8
	lg	%r1,256(%r15)
	vleb	%v22,0(%r5),9
	vleb	%v15,1(%r5),9
	vleb	%v18,2(%r5),9
	vleb	%v11,3(%r5),9
	vleb	%v20,4(%r5),9
	vleb	%v13,5(%r5),9
	vleb	%v16,6(%r5),9
	vleb	%v9,7(%r5),9
	lg	%r5,432(%r15)
	vleb	%v10,0(%r1),9
	vleb	%v0,1(%r1),9
	vleb	%v3,2(%r1),9
	vleb	%v21,3(%r1),9
	vleb	%v7,4(%r1),9
	vleb	%v24,5(%r1),9
	vleb	%v6,6(%r1),9
	vleb	%v17,7(%r1),9
	lg	%r1,264(%r15)
	vleb	%v22,0(%r5),10
	vleb	%v15,1(%r5),10
	vleb	%v18,2(%r5),10
	vleb	%v11,3(%r5),10
	vleb	%v20,4(%r5),10
	vleb	%v13,5(%r5),10
	vleb	%v16,6(%r5),10
	vleb	%v9,7(%r5),10
	lg	%r5,280(%r15)
	vleb	%v10,0(%r1),10
	vleb	%v0,1(%r1),10
	vleb	%v3,2(%r1),10
	vleb	%v21,3(%r1),10
	vleb	%v7,4(%r1),10
	vleb	%v24,5(%r1),10
	vleb	%v6,6(%r1),10
	vleb	%v17,7(%r1),10
	lg	%r1,440(%r15)
	vleb	%v10,0(%r5),11
	vleb	%v0,1(%r5),11
	vleb	%v3,2(%r5),11
	vleb	%v21,3(%r5),11
	vleb	%v7,4(%r5),11
	vleb	%v24,5(%r5),11
	vleb	%v6,6(%r5),11
	vleb	%v17,7(%r5),11
	lg	%r5,448(%r15)
	vleb	%v22,0(%r1),11
	vleb	%v15,1(%r1),11
	vleb	%v18,2(%r1),11
	vleb	%v11,3(%r1),11
	vleb	%v20,4(%r1),11
	vleb	%v13,5(%r1),11
	vleb	%v16,6(%r1),11
	vleb	%v9,7(%r1),11
	lg	%r1,296(%r15)
	vleb	%v22,0(%r5),12
	vleb	%v15,1(%r5),12
	vleb	%v18,2(%r5),12
	vleb	%v11,3(%r5),12
	vleb	%v20,4(%r5),12
	vleb	%v13,5(%r5),12
	vleb	%v16,6(%r5),12
	vleb	%v9,7(%r5),12
	lg	%r5,312(%r15)
	vleb	%v10,0(%r1),12
	vleb	%v0,1(%r1),12
	vleb	%v3,2(%r1),12
	vleb	%v21,3(%r1),12
	vleb	%v7,4(%r1),12
	vleb	%v24,5(%r1),12
	vleb	%v6,6(%r1),12
	vleb	%v17,7(%r1),12
	vleb	%v10,0(%r5),13
	vleb	%v0,1(%r5),13
	vleb	%v3,2(%r5),13
	vleb	%v21,3(%r5),13
	vleb	%v7,4(%r5),13
	vleb	%v24,5(%r5),13
	vleb	%v6,6(%r5),13
	vleb	%v17,7(%r5),13
	lg	%r5,328(%r15)
	vzero	%v8
	vlr	%v19,%v8
	vleb	%v22,0(%r11),13
	vlr	%v28,%v19
	vleb	%v15,1(%r11),13
	vleb	%v18,2(%r11),13
	vleb	%v11,3(%r11),13
	vleb	%v20,4(%r11),13
	vleb	%v13,5(%r11),13
	vleb	%v16,6(%r11),13
	vleb	%v9,7(%r11),13
	vleb	%v10,0(%r5),14
	vleb	%v22,0(%r10),14
	vleb	%v0,1(%r5),14
	vleb	%v15,1(%r10),14
	vleb	%v28,9(%r3),0
	vlr	%v30,%v28
	vlr	%v28,%v19
	vleb	%v28,13(%r3),0
	vst	%v28,192(%r15),3
	vlr	%v28,%v19
	vleb	%v28,11(%r3),0
	vst	%v28,176(%r15),3
	vlr	%v28,%v19
	vleb	%v28,14(%r4),0
	vst	%v28,208(%r15),3
	vlr	%v28,%v19
	vleb	%v28,9(%r4),0
	vst	%v28,160(%r15),3
	vlr	%v28,%v30
	vleb	%v28,9(%r3,%r9),1
	vlr	%v30,%v28
	vl	%v28,192(%r15),3
	lg	%r1,464(%r15)
	vleb	%v3,2(%r5),14
	vleb	%v28,13(%r3,%r9),1
	vst	%v28,192(%r15),3
	vl	%v28,176(%r15),3
	vleb	%v21,3(%r5),14
	vleb	%v7,4(%r5),14
	vleb	%v28,11(%r3,%r9),1
	vst	%v28,176(%r15),3
	vl	%v28,208(%r15),3
	vleb	%v24,5(%r5),14
	vleb	%v6,6(%r5),14
	vleb	%v28,14(%r4,%r9),1
	vst	%v28,208(%r15),3
	vl	%v28,160(%r15),3
	vleb	%v17,7(%r5),14
	vleb	%v10,0(%r1),15
	vleb	%v0,1(%r1),15
	vleb	%v3,2(%r1),15
	vleb	%v21,3(%r1),15
	vleb	%v7,4(%r1),15
	vleb	%v24,5(%r1),15
	vleb	%v6,6(%r1),15
	vleb	%v17,7(%r1),15
	lg	%r1,224(%r15)
	vleb	%v28,9(%r4,%r9),1
	vst	%v28,160(%r15),3
	vlr	%v28,%v30
	vleb	%v28,9(%r1),2
	vlr	%v30,%v28
	vl	%v28,192(%r15),3
	vlr	%v5,%v8
	vlr	%v1,%v8
	vleb	%v28,13(%r1),2
	vst	%v28,192(%r15),3
	vl	%v28,176(%r15),3
	vleb	%v5,12(%r3),0
	vleb	%v1,10(%r3),0
	vleb	%v28,11(%r1),2
	vlr	%v2,%v8
	vlr	%v31,%v8
	vleb	%v2,14(%r3),0
	vleb	%v31,15(%r3),0
	vlr	%v29,%v8
	vlr	%v27,%v8
	vlr	%v25,%v8
	vlr	%v26,%v8
	vlr	%v23,%v8
	vleb	%v8,8(%r3),0
	vst	%v28,176(%r15),3
	vleb	%v8,8(%r3,%r9),1
	vl	%v28,208(%r15),3
	vleb	%v5,12(%r3,%r9),1
	vleb	%v1,10(%r3,%r9),1
	vleb	%v2,14(%r3,%r9),1
	vleb	%v31,15(%r3,%r9),1
	agr	%r3,%r0
	vleb	%v8,8(%r1),2
	vleb	%v5,12(%r1),2
	vleb	%v1,10(%r1),2
	vleb	%v2,14(%r1),2
	vleb	%v31,15(%r1),2
	lg	%r1,344(%r15)
	vleb	%v29,8(%r4),0
	vleb	%v28,14(%r1),2
	vst	%v28,208(%r15),3
	vl	%v28,160(%r15),3
	vleb	%v27,12(%r4),0
	vleb	%v25,10(%r4),0
	vleb	%v28,9(%r1),2
	vst	%v28,160(%r15),3
	vlr	%v28,%v30
	vleb	%v28,9(%r6),3
	vlr	%v30,%v28
	vl	%v28,192(%r15),3
	vleb	%v26,13(%r4),0
	vleb	%v23,11(%r4),0
	vleb	%v28,13(%r6),3
	vst	%v28,192(%r15),3
	vl	%v28,176(%r15),3
	vleb	%v19,15(%r4),0
	vleb	%v29,8(%r4,%r9),1
	vleb	%v28,11(%r6),3
	vst	%v28,176(%r15),3
	vleb	%v27,12(%r4,%r9),1
	vl	%v28,208(%r15),3
	vleb	%v25,10(%r4,%r9),1
	vleb	%v26,13(%r4,%r9),1
	vleb	%v23,11(%r4,%r9),1
	vleb	%v19,15(%r4,%r9),1
	vleb	%v29,8(%r1),2
	vleb	%v27,12(%r1),2
	vleb	%v25,10(%r1),2
	agr	%r4,%r0
	vleb	%v26,13(%r1),2
	vleb	%v23,11(%r1),2
	vleb	%v19,15(%r1),2
	lg	%r1,360(%r15)
	lg	%r5,392(%r15)
	vleb	%v28,14(%r1),3
	vst	%v28,208(%r15),3
	vl	%v28,160(%r15),3
	vleb	%v29,8(%r1),3
	vleb	%v27,12(%r1),3
	vleb	%v28,9(%r1),3
	vst	%v28,160(%r15),3
	vlr	%v28,%v30
	vleb	%v28,9(%r7),4
	vlr	%v30,%v28
	vl	%v28,192(%r15),3
	vleb	%v25,10(%r1),3
	vleb	%v26,13(%r1),3
	vleb	%v28,13(%r7),4
	vst	%v28,192(%r15),3
	vl	%v28,176(%r15),3
	vleb	%v23,11(%r1),3
	vleb	%v19,15(%r1),3
	vleb	%v28,11(%r7),4
	vst	%v28,176(%r15),3
	vl	%v28,208(%r15),3
	lg	%r1,376(%r15)
	vleb	%v8,8(%r6),3
	vleb	%v28,14(%r1),4
	vst	%v28,208(%r15),3
	vl	%v28,160(%r15),3
	vleb	%v29,8(%r1),4
	vleb	%v27,12(%r1),4
	vleb	%v28,9(%r1),4
	vleb	%v25,10(%r1),4
	vleb	%v26,13(%r1),4
	vleb	%v23,11(%r1),4
	vleb	%v19,15(%r1),4
	lg	%r1,232(%r15)
	vst	%v28,160(%r15),3
	vlr	%v28,%v30
	vleb	%v28,9(%r1),5
	vlr	%v30,%v28
	vl	%v28,192(%r15),3
	vleb	%v29,8(%r5),5
	vleb	%v27,12(%r5),5
	vleb	%v28,13(%r1),5
	vst	%v28,192(%r15),3
	vl	%v28,176(%r15),3
	vleb	%v25,10(%r5),5
	vleb	%v26,13(%r5),5
	vleb	%v28,11(%r1),5
	vst	%v28,176(%r15),3
	vl	%v28,208(%r15),3
	vleb	%v23,11(%r5),5
	vleb	%v19,15(%r5),5
	vleb	%v28,14(%r5),5
	vst	%v28,208(%r15),3
	vl	%v28,160(%r15),3
	vleb	%v5,12(%r6),3
	vleb	%v1,10(%r6),3
	vleb	%v28,9(%r5),5
	lg	%r5,240(%r15)
	vst	%v28,160(%r15),3
	vlr	%v28,%v30
	vleb	%v28,9(%r5),6
	vlr	%v30,%v28
	vl	%v28,192(%r15),3
	vleb	%v2,14(%r6),3
	vleb	%v31,15(%r6),3
	agr	%r6,%r0
	vleb	%v28,13(%r5),6
	vst	%v28,192(%r15),3
	vl	%v28,176(%r15),3
	vleb	%v8,8(%r7),4
	vleb	%v5,12(%r7),4
	vleb	%v28,11(%r5),6
	vleb	%v1,10(%r7),4
	vleb	%v2,14(%r7),4
	vleb	%v31,15(%r7),4
	vst	%v28,176(%r15),3
	vleb	%v8,8(%r1),5
	vl	%v28,208(%r15),3
	agr	%r7,%r0
	vleb	%v5,12(%r1),5
	vleb	%v1,10(%r1),5
	vleb	%v2,14(%r1),5
	vleb	%v31,15(%r1),5
	vleb	%v8,8(%r5),6
	vleb	%v5,12(%r5),6
	vleb	%v1,10(%r5),6
	vleb	%v2,14(%r5),6
	vleb	%v31,15(%r5),6
	lg	%r5,400(%r15)
	vleb	%v18,2(%r10),14
	vleb	%v28,14(%r5),6
	vst	%v28,208(%r15),3
	vl	%v28,160(%r15),3
	vleb	%v29,8(%r5),6
	vleb	%v27,12(%r5),6
	vleb	%v28,9(%r5),6
	vleb	%v25,10(%r5),6
	vleb	%v26,13(%r5),6
	vleb	%v23,11(%r5),6
	vleb	%v19,15(%r5),6
	lg	%r5,456(%r15)
	vst	%v28,160(%r15),3
	vlr	%v28,%v30
	vleb	%v28,9(%r5),7
	vlr	%v30,%v28
	vl	%v28,192(%r15),3
	vleb	%v8,8(%r5),7
	vleb	%v5,12(%r5),7
	vleb	%v28,13(%r5),7
	vst	%v28,192(%r15),3
	vl	%v28,176(%r15),3
	vleb	%v1,10(%r5),7
	vleb	%v2,14(%r5),7
	vleb	%v28,11(%r5),7
	vst	%v28,176(%r15),3
	vl	%v28,208(%r15),3
	vleb	%v31,15(%r5),7
	lg	%r5,408(%r15)
	vleb	%v11,3(%r10),14
	vleb	%v28,14(%r5),7
	vst	%v28,208(%r15),3
	vl	%v28,160(%r15),3
	vleb	%v29,8(%r5),7
	vleb	%v27,12(%r5),7
	vleb	%v28,9(%r5),7
	vleb	%v25,10(%r5),7
	vleb	%v26,13(%r5),7
	vleb	%v23,11(%r5),7
	vleb	%v19,15(%r5),7
	lg	%r5,248(%r15)
	vst	%v28,160(%r15),3
	vlr	%v28,%v30
	vleb	%v28,9(%r5),8
	vlr	%v30,%v28
	vl	%v28,192(%r15),3
	vleb	%v8,8(%r5),8
	vleb	%v1,10(%r5),8
	vleb	%v28,13(%r5),8
	vst	%v28,192(%r15),3
	vl	%v28,176(%r15),3
	vleb	%v2,14(%r5),8
	vleb	%v31,15(%r5),8
	vleb	%v28,11(%r5),8
	vst	%v28,176(%r15),3
	vl	%v28,208(%r15),3
	vleb	%v5,12(%r5),8
	lg	%r5,416(%r15)
	vleb	%v20,4(%r10),14
	vleb	%v28,14(%r5),8
	vst	%v28,208(%r15),3
	vl	%v28,160(%r15),3
	vleb	%v29,8(%r5),8
	vleb	%v27,12(%r5),8
	vleb	%v28,9(%r5),8
	vleb	%v25,10(%r5),8
	vleb	%v26,13(%r5),8
	vleb	%v23,11(%r5),8
	vleb	%v19,15(%r5),8
	lg	%r5,256(%r15)
	vleb	%v13,5(%r10),14
	vleb	%v16,6(%r10),14
	vleb	%v9,7(%r10),14
	vleb	%v22,0(%r8),15
	vleb	%v15,1(%r8),15
	vleb	%v18,2(%r8),15
	vleb	%v11,3(%r8),15
	vleb	%v20,4(%r8),15
	vleb	%v13,5(%r8),15
	vleb	%v16,6(%r8),15
	vleb	%v9,7(%r8),15
	vleb	%v8,8(%r5),9
	vst	%v28,160(%r15),3
	vleb	%v5,12(%r5),9
	vlr	%v28,%v30
	vleb	%v28,9(%r5),9
	vlr	%v30,%v28
	vl	%v28,192(%r15),3
	vleb	%v1,10(%r5),9
	vleb	%v2,14(%r5),9
	vleb	%v28,13(%r5),9
	vst	%v28,192(%r15),3
	vl	%v28,176(%r15),3
	vleb	%v31,15(%r5),9
	lg	%r1,264(%r15)
	vleb	%v28,11(%r5),9
	vst	%v28,176(%r15),3
	vl	%v28,208(%r15),3
	lg	%r5,424(%r15)
	vleb	%v8,8(%r1),10
	vleb	%v28,14(%r5),9
	vst	%v28,208(%r15),3
	vl	%v28,160(%r15),3
	vleb	%v5,12(%r1),10
	vleb	%v1,10(%r1),10
	vleb	%v28,9(%r5),9
	vst	%v28,160(%r15),3
	vlr	%v28,%v30
	vleb	%v28,9(%r1),10
	vlr	%v30,%v28
	vl	%v28,192(%r15),3
	vleb	%v2,14(%r1),10
	vleb	%v31,15(%r1),10
	vleb	%v28,13(%r1),10
	vst	%v28,192(%r15),3
	vl	%v28,176(%r15),3
	vleb	%v29,8(%r5),9
	vleb	%v27,12(%r5),9
	vleb	%v28,11(%r1),10
	vst	%v28,176(%r15),3
	vl	%v28,208(%r15),3
	lg	%r1,432(%r15)
	vleb	%v25,10(%r5),9
	vleb	%v28,14(%r1),10
	vst	%v28,208(%r15),3
	vl	%v28,160(%r15),3
	vleb	%v26,13(%r5),9
	vleb	%v23,11(%r5),9
	vleb	%v19,15(%r5),9
	lg	%r5,280(%r15)
	vleb	%v28,9(%r1),10
	vst	%v28,160(%r15),3
	vlr	%v28,%v30
	vleb	%v28,9(%r5),11
	vlr	%v30,%v28
	vl	%v28,192(%r15),3
	vleb	%v8,8(%r5),11
	vleb	%v5,12(%r5),11
	vleb	%v28,13(%r5),11
	vst	%v28,192(%r15),3
	vl	%v28,176(%r15),3
	vleb	%v1,10(%r5),11
	vleb	%v2,14(%r5),11
	vleb	%v28,11(%r5),11
	vst	%v28,176(%r15),3
	vl	%v28,208(%r15),3
	vleb	%v31,15(%r5),11
	lg	%r5,440(%r15)
	vleb	%v29,8(%r1),10
	vleb	%v28,14(%r5),11
	vst	%v28,208(%r15),3
	vl	%v28,160(%r15),3
	vleb	%v27,12(%r1),10
	vleb	%v25,10(%r1),10
	vleb	%v26,13(%r1),10
	vleb	%v23,11(%r1),10
	vleb	%v19,15(%r1),10
	lg	%r1,296(%r15)
	vleb	%v28,9(%r5),11
	vst	%v28,160(%r15),3
	vlr	%v28,%v30
	vleb	%v28,9(%r1),12
	vlr	%v30,%v28
	vl	%v28,192(%r15),3
	vleb	%v8,8(%r1),12
	vleb	%v5,12(%r1),12
	vleb	%v28,13(%r1),12
	vst	%v28,192(%r15),3
	vl	%v28,176(%r15),3
	vleb	%v1,10(%r1),12
	vleb	%v2,14(%r1),12
	vleb	%v28,11(%r1),12
	vst	%v28,176(%r15),3
	vl	%v28,208(%r15),3
	vleb	%v31,15(%r1),12
	lg	%r1,448(%r15)
	vleb	%v29,8(%r5),11
	vleb	%v28,14(%r1),12
	vst	%v28,208(%r15),3
	vl	%v28,160(%r15),3
	vleb	%v27,12(%r5),11
	vleb	%v25,10(%r5),11
	vleb	%v26,13(%r5),11
	vleb	%v23,11(%r5),11
	vleb	%v19,15(%r5),11
	vleb	%v28,9(%r1),12
	vleb	%v29,8(%r1),12
	vleb	%v27,12(%r1),12
	vleb	%v25,10(%r1),12
	vleb	%v26,13(%r1),12
	vleb	%v23,11(%r1),12
	vleb	%v19,15(%r1),12
	lg	%r1,312(%r15)
	vst	%v28,160(%r15),3
	vlr	%v28,%v30
	vleb	%v28,9(%r1),13
	vlr	%v30,%v28
	vl	%v28,192(%r15),3
	lg	%r5,328(%r15)
	vleb	%v8,8(%r1),13
	vleb	%v28,13(%r1),13
	vst	%v28,192(%r15),3
	vl	%v28,176(%r15),3
	vleb	%v5,12(%r1),13
	vleb	%v1,10(%r1),13
	vleb	%v28,11(%r1),13
	vst	%v28,176(%r15),3
	vl	%v28,208(%r15),3
	vleb	%v2,14(%r1),13
	vleb	%v31,15(%r1),13
	vleb	%v28,14(%r11),13
	vst	%v28,208(%r15),3
	vl	%v28,160(%r15),3
	vleb	%v8,8(%r5),14
	vleb	%v5,12(%r5),14
	vleb	%v28,9(%r11),13
	vst	%v28,160(%r15),3
	vlr	%v28,%v30
	vleb	%v28,9(%r5),14
	vlr	%v30,%v28
	vl	%v28,192(%r15),3
	vleb	%v1,10(%r5),14
	vleb	%v2,14(%r5),14
	vleb	%v28,13(%r5),14
	vst	%v28,192(%r15),3
	vl	%v28,176(%r15),3
	vleb	%v31,15(%r5),14
	vleb	%v29,8(%r11),13
	vleb	%v28,11(%r5),14
	vst	%v28,176(%r15),3
	vl	%v28,208(%r15),3
	lg	%r5,464(%r15)
	vleb	%v29,8(%r10),14
	vleb	%v28,14(%r10),14
	vst	%v28,208(%r15),3
	vl	%v28,160(%r15),3
	vleb	%v8,8(%r5),15
	vleb	%v5,12(%r5),15
	vleb	%v28,9(%r10),14
	vst	%v28,160(%r15),3
	vlr	%v28,%v30
	vleb	%v28,9(%r5),15
	vlr	%v30,%v28
	vl	%v28,192(%r15),3
	vleb	%v1,10(%r5),15
	vleb	%v2,14(%r5),15
	vleb	%v28,13(%r5),15
	vst	%v28,192(%r15),3
	vl	%v28,176(%r15),3
	vleb	%v31,15(%r5),15
	vleb	%v29,8(%r8),15
	vleb	%v28,11(%r5),15
	vst	%v28,176(%r15),3
	vl	%v28,208(%r15),3
	vleb	%v27,12(%r11),13
	vleb	%v27,12(%r10),14
	vleb	%v28,14(%r8),15
	vst	%v28,208(%r15),3
	vl	%v28,160(%r15),3
	vleb	%v27,12(%r8),15
	vleb	%v25,10(%r11),13
	vleb	%v28,9(%r8),15
	vst	%v28,160(%r15),3
	vuplhb	%v28,%v10
	vst	%v28,464(%r15),3
	vuplhb	%v28,%v8
	vst	%v28,736(%r15),3
	vuplhb	%v28,%v7
	vst	%v28,672(%r15),3
	vuplhb	%v28,%v5
	vst	%v28,992(%r15),3
	vuplhb	%v28,%v3
	vst	%v28,592(%r15),3
	vuplhb	%v28,%v1
	vst	%v28,912(%r15),3
	vuplhb	%v28,%v6
	vst	%v28,752(%r15),3
	vuplhb	%v28,%v2
	vst	%v28,1248(%r15),3
	vuplhb	%v28,%v0
	vst	%v28,520(%r15),3
	vuplhb	%v28,%v30
	vst	%v28,768(%r15),3
	vupllb	%v28,%v30
	vst	%v28,832(%r15),3
	vuplhb	%v28,%v24
	vst	%v28,720(%r15),3
	vl	%v28,192(%r15),3
	vleb	%v25,10(%r10),14
	vleb	%v25,10(%r8),15
	vuplhb	%v30,%v28
	vst	%v30,1184(%r15),3
	vupllb	%v30,%v28
	vl	%v28,176(%r15),3
	vst	%v30,1200(%r15),3
	vuplhb	%v30,%v21
	vst	%v30,640(%r15),3
	vuplhb	%v30,%v28
	vst	%v30,1088(%r15),3
	vupllb	%v30,%v28
	vst	%v30,1104(%r15),3
	vuplhb	%v30,%v17
	vst	%v30,880(%r15),3
	vuplhb	%v30,%v31
	vupllb	%v31,%v31
	vst	%v31,1312(%r15),3
	vuplhb	%v31,%v22
	vst	%v31,192(%r15),3
	vuplhb	%v31,%v29
	vupllb	%v29,%v29
	vst	%v29,976(%r15),3
	vuplhb	%v29,%v20
	vupllb	%v20,%v20
	vst	%v20,704(%r15),3
	vuplhb	%v20,%v27
	vupllb	%v27,%v27
	vst	%v27,1168(%r15),3
	vuplhb	%v27,%v18
	vupllb	%v18,%v18
	vleb	%v26,13(%r11),13
	vst	%v18,624(%r15),3
	vuplhb	%v18,%v25
	vupllb	%v25,%v25
	vleb	%v26,13(%r10),14
	vst	%v25,1072(%r15),3
	vuplhb	%v25,%v16
	vupllb	%v16,%v16
	vleb	%v26,13(%r8),15
	vst	%v29,688(%r15),3
	vst	%v16,864(%r15),3
	vuplhb	%v29,%v13
	vl	%v16,208(%r15),3
	vupllb	%v13,%v13
	vleb	%v19,15(%r11),13
	vst	%v13,800(%r15),3
	vuplhb	%v13,%v26
	vupllb	%v26,%v26
	vl	%v28,464(%r15),3
	vleb	%v19,15(%r10),14
	vst	%v26,1232(%r15),3
	vuplhb	%v26,%v11
	vleb	%v19,15(%r8),15
	vst	%v20,1136(%r15),3
	vst	%v25,848(%r15),3
	vuplhb	%v20,%v16
	vupllb	%v25,%v16
	vl	%v16,160(%r15),3
	vst	%v26,160(%r15),3
	vuplhb	%v26,%v9
	vupllb	%v9,%v9
	vleb	%v23,11(%r11),13
	agr	%r11,%r0
	vst	%v9,944(%r15),3
	vuplhb	%v9,%v19
	vleb	%v23,11(%r10),14
	vst	%v9,1328(%r15),3
	vah	%v9,%v28,%v4
	vl	%v28,736(%r15),3
	agr	%r10,%r0
	vleb	%v23,11(%r8),15
	vst	%v13,1216(%r15),3
	vupllb	%v10,%v10
	vupllb	%v13,%v23
	vst	%v13,1152(%r15),3
	vah	%v13,%v10,%v4
	vah	%v10,%v28,%v4
	vl	%v28,672(%r15),3
	vupllb	%v19,%v19
	vst	%v19,1344(%r15),3
	vah	%v19,%v28,%v4
	vl	%v28,992(%r15),3
	vst	%v31,896(%r15),3
	vst	%v27,608(%r15),3
	vah	%v31,%v28,%v4
	vl	%v28,592(%r15),3
	vuplhb	%v27,%v15
	vst	%v27,208(%r15),3
	vah	%v27,%v28,%v4
	vl	%v28,912(%r15),3
	vst	%v29,784(%r15),3
	vst	%v30,1296(%r15),3
	vah	%v29,%v28,%v4
	vl	%v28,752(%r15),3
	vupllb	%v11,%v11
	vst	%v11,656(%r15),3
	vah	%v30,%v28,%v4
	vl	%v28,1248(%r15),3
	vuplhb	%v11,%v23
	vupllb	%v15,%v15
	vst	%v15,536(%r15),3
	vst	%v11,1120(%r15),3
	vuplhb	%v15,%v16
	vl	%v11,720(%r15),3
	vst	%v13,504(%r15),3
	vlr	%v13,%v10
	vl	%v10,832(%r15),3
	vst	%v25,1280(%r15),3
	vst	%v15,1008(%r15),3
	vah	%v25,%v28,%v4
	vupllb	%v15,%v16
	vl	%v28,520(%r15),3
	vl	%v16,1184(%r15),3
	vupllb	%v24,%v24
	vupllb	%v8,%v8
	vupllb	%v7,%v7
	vupllb	%v3,%v3
	vupllb	%v1,%v1
	vupllb	%v2,%v2
	vst	%v15,1024(%r15),3
	vupllb	%v22,%v22
	vah	%v15,%v24,%v4
	vah	%v8,%v8,%v4
	vah	%v7,%v7,%v4
	vah	%v3,%v3,%v4
	vah	%v1,%v1,%v4
	vah	%v2,%v2,%v4
	vah	%v10,%v10,%v4
	vah	%v11,%v11,%v4
	vah	%v24,%v16,%v4
	vst	%v22,488(%r15),3
	vst	%v18,1040(%r15),3
	vst	%v20,1264(%r15),3
	vst	%v26,928(%r15),3
	agr	%r8,%r0
	vah	%v26,%v28,%v4
	vst	%v9,176(%r15),3
	vst	%v8,960(%r15),3
	vst	%v7,816(%r15),3
	vst	%v3,736(%r15),3
	vst	%v1,1056(%r15),3
	vst	%v2,1248(%r15),3
	vst	%v10,992(%r15),3
	vst	%v11,720(%r15),3
	vst	%v15,832(%r15),3
	vl	%v28,768(%r15),3
	vl	%v16,1200(%r15),3
	vl	%v22,1088(%r15),3
	vupllb	%v21,%v21
	vah	%v20,%v21,%v4
	vah	%v21,%v22,%v4
	vl	%v22,1104(%r15),3
	vl	%v23,880(%r15),3
	vupllb	%v17,%v17
	vah	%v22,%v22,%v4
	vst	%v22,1104(%r15),3
	vah	%v22,%v23,%v4
	vl	%v23,1296(%r15),3
	vah	%v17,%v17,%v4
	vst	%v17,912(%r15),3
	vah	%v17,%v23,%v4
	vl	%v23,1312(%r15),3
	vl	%v18,640(%r15),3
	vst	%v20,768(%r15),3
	vah	%v2,%v23,%v4
	vl	%v23,192(%r15),3
	vah	%v18,%v18,%v4
	vst	%v18,640(%r15),3
	vah	%v18,%v23,%v4
	vl	%v23,488(%r15),3
	vah	%v16,%v16,%v4
	vst	%v16,1184(%r15),3
	vah	%v8,%v23,%v4
	vl	%v23,896(%r15),3
	vst	%v2,1296(%r15),3
	vst	%v13,592(%r15),3
	vah	%v20,%v23,%v4
	vl	%v23,976(%r15),3
	vah	%v28,%v28,%v4
	vupllb	%v5,%v5
	vah	%v1,%v23,%v4
	vl	%v23,688(%r15),3
	vst	%v1,976(%r15),3
	vah	%v5,%v5,%v4
	vah	%v15,%v23,%v4
	vl	%v23,704(%r15),3
	vupllb	%v6,%v6
	vah	%v6,%v6,%v4
	vah	%v3,%v23,%v4
	vl	%v23,1136(%r15),3
	vst	%v3,896(%r15),3
	vupllb	%v0,%v0
	vah	%v16,%v23,%v4
	vl	%v23,1168(%r15),3
	vah	%v0,%v0,%v4
	vah	%v7,%v23,%v4
	vl	%v23,608(%r15),3
	vst	%v7,1168(%r15),3
	vah	%v11,%v23,%v4
	vl	%v23,624(%r15),3
	vah	%v10,%v23,%v4
	vl	%v23,1040(%r15),3
	vst	%v10,752(%r15),3
	vah	%v2,%v23,%v4
	vl	%v23,1072(%r15),3
	vst	%v2,464(%r15),3
	vah	%v9,%v23,%v4
	vl	%v23,848(%r15),3
	vst	%v9,1088(%r15),3
	vah	%v10,%v23,%v4
	vl	%v23,864(%r15),3
	vah	%v2,%v23,%v4
	vl	%v23,1264(%r15),3
	vst	%v2,1040(%r15),3
	vah	%v9,%v23,%v4
	vl	%v23,1280(%r15),3
	vah	%v1,%v23,%v4
	vl	%v23,208(%r15),3
	vst	%v1,1200(%r15),3
	vah	%v7,%v23,%v4
	vl	%v23,536(%r15),3
	vah	%v3,%v23,%v4
	vl	%v23,1008(%r15),3
	vst	%v3,520(%r15),3
	vah	%v2,%v23,%v4
	vl	%v23,1024(%r15),3
	vst	%v2,688(%r15),3
	vah	%v1,%v23,%v4
	vl	%v23,784(%r15),3
	vst	%v1,1136(%r15),3
	vah	%v3,%v23,%v4
	vl	%v23,800(%r15),3
	vah	%v2,%v23,%v4
	vl	%v23,1216(%r15),3
	vst	%v2,1024(%r15),3
	vah	%v1,%v23,%v4
	vl	%v23,1232(%r15),3
	vst	%v1,848(%r15),3
	vah	%v2,%v23,%v4
	vl	%v23,160(%r15),3
	vst	%v2,488(%r15),3
	vah	%v1,%v23,%v4
	vl	%v23,656(%r15),3
	vst	%v1,784(%r15),3
	vah	%v2,%v23,%v4
	vl	%v23,1120(%r15),3
	vst	%v2,192(%r15),3
	vah	%v1,%v23,%v4
	vl	%v23,1152(%r15),3
	vah	%v2,%v23,%v4
	vl	%v23,928(%r15),3
	vst	%v2,1152(%r15),3
	vah	%v2,%v23,%v4
	vl	%v23,944(%r15),3
	vst	%v2,800(%r15),3
	vah	%v2,%v23,%v4
	vl	%v23,1328(%r15),3
	vst	%v2,208(%r15),3
	vah	%v2,%v23,%v4
	vl	%v23,1344(%r15),3
	vah	%v23,%v23,%v4
	vst	%v23,536(%r15),3
	vl	%v23,176(%r15),3
	vperm	%v23,%v23,%v13,%v14
	vst	%v23,160(%r15),3
	vl	%v13,592(%r15),3
	vl	%v23,176(%r15),3
	vperm	%v23,%v23,%v13,%v12
	vst	%v23,592(%r15),3
	vperm	%v23,%v19,%v31,%v14
	vperm	%v31,%v19,%v31,%v12
	vl	%v19,720(%r15),3
	vst	%v31,672(%r15),3
	vl	%v13,464(%r15),3
	vperm	%v31,%v27,%v29,%v14
	vperm	%v27,%v27,%v29,%v12
	vst	%v27,624(%r15),3
	vperm	%v29,%v30,%v25,%v12
	vperm	%v27,%v30,%v25,%v14
	vperm	%v30,%v26,%v28,%v14
	vperm	%v28,%v26,%v28,%v12
	vperm	%v26,%v19,%v24,%v14
	vperm	%v24,%v19,%v24,%v12
	vl	%v19,640(%r15),3
	vl	%v25,688(%r15),3
	vst	%v23,176(%r15),3
	vst	%v29,704(%r15),3
	vperm	%v23,%v19,%v21,%v14
	vperm	%v19,%v19,%v21,%v12
	vst	%v19,656(%r15),3
	vperm	%v29,%v22,%v17,%v12
	vperm	%v19,%v22,%v17,%v14
	vperm	%v22,%v18,%v20,%v14
	vperm	%v20,%v18,%v20,%v12
	vperm	%v18,%v15,%v16,%v14
	vperm	%v16,%v15,%v16,%v12
	vperm	%v15,%v11,%v13,%v14
	vperm	%v11,%v11,%v13,%v12
	vst	%v11,640(%r15),3
	vperm	%v11,%v10,%v9,%v14
	vperm	%v10,%v10,%v9,%v12
	vperm	%v9,%v7,%v25,%v14
	vperm	%v7,%v7,%v25,%v12
	vl	%v25,848(%r15),3
	vst	%v29,720(%r15),3
	vl	%v13,504(%r15),3
	vperm	%v29,%v3,%v25,%v14
	vperm	%v3,%v3,%v25,%v12
	vl	%v25,784(%r15),3
	vl	%v21,960(%r15),3
	vst	%v31,608(%r15),3
	vperm	%v17,%v25,%v1,%v14
	vperm	%v1,%v25,%v1,%v12
	vl	%v25,800(%r15),3
	vst	%v29,688(%r15),3
	vperm	%v31,%v25,%v2,%v14
	vperm	%v2,%v25,%v2,%v12
	vperm	%v25,%v13,%v21,%v14
	vperm	%v21,%v13,%v21,%v12
	vl	%v13,816(%r15),3
	vst	%v25,784(%r15),3
	vst	%v21,800(%r15),3
	vperm	%v25,%v13,%v5,%v14
	vperm	%v21,%v13,%v5,%v12
	vl	%v5,736(%r15),3
	vl	%v13,1056(%r15),3
	vst	%v21,960(%r15),3
	vperm	%v29,%v5,%v13,%v14
	vperm	%v13,%v5,%v13,%v12
	vl	%v5,1248(%r15),3
	vst	%v13,880(%r15),3
	vperm	%v13,%v6,%v5,%v14
	vperm	%v5,%v6,%v5,%v12
	vl	%v6,992(%r15),3
	vst	%v5,1072(%r15),3
	vst	%v13,1056(%r15),3
	vperm	%v5,%v0,%v6,%v14
	vst	%v5,848(%r15),3
	vperm	%v5,%v0,%v6,%v12
	vl	%v0,832(%r15),3
	vl	%v6,1184(%r15),3
	vst	%v5,864(%r15),3
	vperm	%v21,%v0,%v6,%v14
	vperm	%v5,%v0,%v6,%v12
	vl	%v0,768(%r15),3
	vl	%v6,1104(%r15),3
	vst	%v5,1008(%r15),3
	vperm	%v5,%v0,%v6,%v14
	vst	%v5,928(%r15),3
	vperm	%v5,%v0,%v6,%v12
	vl	%v0,912(%r15),3
	vl	%v6,1296(%r15),3
	vst	%v5,944(%r15),3
	vperm	%v13,%v0,%v6,%v14
	vperm	%v5,%v0,%v6,%v12
	vl	%v0,976(%r15),3
	vst	%v5,1120(%r15),3
	vl	%v6,1168(%r15),3
	vperm	%v5,%v8,%v0,%v14
	vperm	%v0,%v8,%v0,%v12
	vst	%v0,832(%r15),3
	vl	%v0,896(%r15),3
	vst	%v5,816(%r15),3
	vperm	%v5,%v0,%v6,%v14
	vst	%v5,976(%r15),3
	vperm	%v5,%v0,%v6,%v12
	vl	%v0,752(%r15),3
	vl	%v6,1088(%r15),3
	vst	%v5,992(%r15),3
	vperm	%v5,%v0,%v6,%v14
	vst	%v5,896(%r15),3
	vperm	%v5,%v0,%v6,%v12
	vl	%v0,1040(%r15),3
	vl	%v6,1200(%r15),3
	vst	%v5,912(%r15),3
	vperm	%v5,%v0,%v6,%v14
	vperm	%v6,%v0,%v6,%v12
	vst	%v5,1088(%r15),3
	vl	%v0,520(%r15),3
	vl	%v5,1136(%r15),3
	vst	%v6,1104(%r15),3
	vperm	%v8,%v0,%v5,%v12
	vperm	%v6,%v0,%v5,%v14
	vl	%v5,488(%r15),3
	vl	%v0,1024(%r15),3
	vst	%v8,504(%r15),3
	vperm	%v8,%v0,%v5,%v14
	vperm	%v0,%v0,%v5,%v12
	vst	%v8,1024(%r15),3
	vl	%v5,192(%r15),3
	vl	%v8,1152(%r15),3
	vst	%v0,1040(%r15),3
	vl	%v0,192(%r15),3
	vperm	%v5,%v5,%v8,%v12
	vst	%v5,520(%r15),3
	vperm	%v0,%v0,%v8,%v14
	vl	%v5,208(%r15),3
	vl	%v8,536(%r15),3
	vperm	%v5,%v5,%v8,%v14
	vst	%v5,1136(%r15),3
	vl	%v5,208(%r15),3
	vperm	%v5,%v5,%v8,%v12
	vst	%v5,1152(%r15),3
	vl	%v8,176(%r15),3
	vl	%v5,160(%r15),3
	vperm	%v5,%v5,%v8,%v14
	vst	%v5,192(%r15),3
	vl	%v5,160(%r15),3
	vperm	%v5,%v5,%v8,%v12
	vl	%v8,608(%r15),3
	vst	%v5,160(%r15),3
	vperm	%v5,%v8,%v27,%v14
	vst	%v5,464(%r15),3
	vperm	%v5,%v8,%v27,%v12
	vst	%v5,752(%r15),3
	vperm	%v5,%v30,%v26,%v14
	vst	%v5,736(%r15),3
	vperm	%v5,%v30,%v26,%v12
	vperm	%v26,%v23,%v19,%v14
	vst	%v5,176(%r15),3
	vperm	%v5,%v23,%v19,%v12
	vl	%v23,688(%r15),3
	vl	%v30,672(%r15),3
	vst	%v5,488(%r15),3
	vperm	%v27,%v9,%v23,%v14
	vperm	%v5,%v9,%v23,%v12
	vperm	%v23,%v17,%v31,%v14
	vperm	%v31,%v17,%v31,%v12
	vl	%v17,592(%r15),3
	vst	%v5,688(%r15),3
	vl	%v9,656(%r15),3
	vperm	%v5,%v17,%v30,%v14
	vperm	%v19,%v22,%v18,%v14
	vst	%v5,592(%r15),3
	vperm	%v22,%v22,%v18,%v12
	vperm	%v5,%v17,%v30,%v12
	vperm	%v18,%v15,%v11,%v14
	vl	%v17,704(%r15),3
	vperm	%v11,%v15,%v11,%v12
	vl	%v15,624(%r15),3
	vst	%v5,608(%r15),3
	vperm	%v30,%v15,%v17,%v14
	vperm	%v5,%v15,%v17,%v12
	vl	%v15,720(%r15),3
	vst	%v5,704(%r15),3
	vperm	%v5,%v28,%v24,%v12
	vperm	%v17,%v28,%v24,%v14
	vst	%v5,672(%r15),3
	vperm	%v24,%v9,%v15,%v14
	vperm	%v5,%v9,%v15,%v12
	vperm	%v15,%v20,%v16,%v14
	vl	%v9,640(%r15),3
	vst	%v5,656(%r15),3
	vl	%v28,1024(%r15),3
	vperm	%v5,%v20,%v16,%v12
	vperm	%v16,%v9,%v10,%v14
	vst	%v5,624(%r15),3
	vperm	%v5,%v9,%v10,%v12
	vst	%v5,640(%r15),3
	vl	%v10,784(%r15),3
	vl	%v20,848(%r15),3
	vperm	%v5,%v7,%v3,%v12
	vperm	%v9,%v7,%v3,%v14
	vst	%v5,208(%r15),3
	vl	%v7,1056(%r15),3
	vl	%v3,816(%r15),3
	vperm	%v5,%v1,%v2,%v14
	vst	%v5,720(%r15),3
	vperm	%v5,%v1,%v2,%v12
	vst	%v5,768(%r15),3
	vperm	%v5,%v10,%v25,%v14
	vperm	%v25,%v10,%v25,%v12
	vst	%v5,536(%r15),3
	vl	%v10,928(%r15),3
	vl	%v1,1088(%r15),3
	vperm	%v5,%v29,%v7,%v14
	vperm	%v29,%v29,%v7,%v12
	vl	%v7,976(%r15),3
	vst	%v5,1168(%r15),3
	vl	%v2,800(%r15),3
	vperm	%v5,%v20,%v21,%v14
	vperm	%v21,%v20,%v21,%v12
	vst	%v5,1056(%r15),3
	vperm	%v20,%v10,%v13,%v14
	vperm	%v5,%v3,%v7,%v12
	vperm	%v13,%v10,%v13,%v12
	vperm	%v10,%v3,%v7,%v14
	vl	%v3,896(%r15),3
	vst	%v5,928(%r15),3
	vperm	%v7,%v3,%v1,%v14
	vperm	%v5,%v3,%v1,%v12
	vperm	%v1,%v6,%v28,%v14
	vst	%v1,976(%r15),3
	vl	%v1,1136(%r15),3
	vperm	%v6,%v6,%v28,%v12
	vperm	%v28,%v0,%v1,%v14
	vperm	%v0,%v0,%v1,%v12
	vl	%v1,960(%r15),3
	vperm	%v8,%v2,%v1,%v14
	vperm	%v3,%v2,%v1,%v12
	vl	%v2,880(%r15),3
	vl	%v1,1072(%r15),3
	vst	%v3,896(%r15),3
	vst	%v8,848(%r15),3
	vperm	%v3,%v2,%v1,%v14
	vst	%v3,1024(%r15),3
	vperm	%v3,%v2,%v1,%v12
	vl	%v2,864(%r15),3
	vl	%v1,1008(%r15),3
	vst	%v3,1072(%r15),3
	vl	%v8,912(%r15),3
	vperm	%v3,%v2,%v1,%v14
	vst	%v3,880(%r15),3
	vperm	%v3,%v2,%v1,%v12
	vl	%v2,944(%r15),3
	vl	%v1,1120(%r15),3
	vst	%v3,960(%r15),3
	vperm	%v3,%v2,%v1,%v14
	vst	%v3,1008(%r15),3
	vperm	%v3,%v2,%v1,%v12
	vl	%v1,992(%r15),3
	vl	%v2,832(%r15),3
	vst	%v3,1088(%r15),3
	vperm	%v3,%v2,%v1,%v14
	vperm	%v2,%v2,%v1,%v12
	vst	%v2,864(%r15),3
	vl	%v2,1104(%r15),3
	vst	%v3,832(%r15),3
	vperm	%v3,%v8,%v2,%v12
	vperm	%v1,%v8,%v2,%v14
	vst	%v3,992(%r15),3
	vl	%v2,1040(%r15),3
	vl	%v3,504(%r15),3
	vl	%v8,1152(%r15),3
	vperm	%v3,%v3,%v2,%v14
	vst	%v3,912(%r15),3
	vl	%v3,504(%r15),3
	vperm	%v2,%v3,%v2,%v12
	vl	%v3,520(%r15),3
	vst	%v2,944(%r15),3
	vl	%v2,520(%r15),3
	vperm	%v3,%v3,%v8,%v12
	vst	%v3,1040(%r15),3
	vperm	%v2,%v2,%v8,%v14
	vl	%v3,192(%r15),3
	vl	%v8,464(%r15),3
	vperm	%v3,%v3,%v8,%v14
	vst	%v3,504(%r15),3
	vl	%v3,192(%r15),3
	vperm	%v3,%v3,%v8,%v12
	vl	%v8,736(%r15),3
	vst	%v3,192(%r15),3
	vperm	%v3,%v8,%v26,%v14
	vst	%v3,784(%r15),3
	vperm	%v3,%v8,%v26,%v12
	vst	%v3,800(%r15),3
	vperm	%v26,%v19,%v18,%v14
	vl	%v3,160(%r15),3
	vperm	%v18,%v19,%v18,%v12
	vperm	%v19,%v27,%v23,%v14
	vperm	%v27,%v27,%v23,%v12
	vl	%v23,752(%r15),3
	vl	%v8,488(%r15),3
	vperm	%v3,%v3,%v23,%v14
	vst	%v3,464(%r15),3
	vl	%v3,160(%r15),3
	vperm	%v3,%v3,%v23,%v12
	vst	%v3,520(%r15),3
	vl	%v3,176(%r15),3
	vperm	%v23,%v3,%v8,%v14
	vperm	%v3,%v3,%v8,%v12
	vst	%v3,816(%r15),3
	vperm	%v3,%v22,%v11,%v14
	vst	%v3,736(%r15),3
	vperm	%v3,%v22,%v11,%v12
	vl	%v11,688(%r15),3
	vst	%v3,752(%r15),3
	vperm	%v22,%v11,%v31,%v14
	vperm	%v31,%v11,%v31,%v12
	vl	%v11,592(%r15),3
	vperm	%v3,%v11,%v30,%v14
	vperm	%v30,%v11,%v30,%v12
	vl	%v11,720(%r15),3
	vst	%v3,160(%r15),3
	vperm	%v3,%v17,%v24,%v14
	vperm	%v8,%v9,%v11,%v14
	vperm	%v24,%v17,%v24,%v12
	vperm	%v9,%v9,%v11,%v12
	vperm	%v17,%v15,%v16,%v14
	vl	%v11,704(%r15),3
	vperm	%v16,%v15,%v16,%v12
	vl	%v15,608(%r15),3
	vst	%v3,688(%r15),3
	vst	%v8,720(%r15),3
	vperm	%v3,%v15,%v11,%v14
	vst	%v3,176(%r15),3
	vperm	%v3,%v15,%v11,%v12
	vl	%v15,672(%r15),3
	vl	%v11,656(%r15),3
	vst	%v3,488(%r15),3
	vperm	%v3,%v15,%v11,%v14
	vst	%v3,656(%r15),3
	vperm	%v3,%v15,%v11,%v12
	vl	%v15,624(%r15),3
	vl	%v11,640(%r15),3
	vst	%v3,672(%r15),3
	vperm	%v3,%v15,%v11,%v14
	vst	%v3,592(%r15),3
	vperm	%v3,%v15,%v11,%v12
	vst	%v3,608(%r15),3
	vl	%v3,208(%r15),3
	vl	%v15,768(%r15),3
	vl	%v8,1056(%r15),3
	vperm	%v11,%v3,%v15,%v14
	vperm	%v3,%v3,%v15,%v12
	vst	%v3,208(%r15),3
	vl	%v15,1168(%r15),3
	vl	%v3,536(%r15),3
	vperm	%v3,%v3,%v15,%v14
	vst	%v3,1104(%r15),3
	vl	%v3,536(%r15),3
	vperm	%v3,%v3,%v15,%v12
	vst	%v3,1120(%r15),3
	vperm	%v3,%v8,%v20,%v14
	vst	%v3,1168(%r15),3
	vperm	%v3,%v10,%v7,%v14
	vst	%v3,1136(%r15),3
	vl	%v3,976(%r15),3
	vperm	%v10,%v10,%v7,%v12
	vperm	%v20,%v8,%v20,%v12
	vperm	%v7,%v3,%v28,%v14
	vperm	%v28,%v3,%v28,%v12
	vperm	%v3,%v25,%v29,%v14
	vst	%v3,976(%r15),3
	vperm	%v3,%v25,%v29,%v12
	vl	%v25,928(%r15),3
	vst	%v3,1056(%r15),3
	vperm	%v3,%v21,%v13,%v14
	vst	%v3,1184(%r15),3
	vperm	%v3,%v21,%v13,%v12
	vperm	%v8,%v25,%v5,%v12
	vl	%v21,1024(%r15),3
	vst	%v3,1200(%r15),3
	vperm	%v3,%v25,%v5,%v14
	vl	%v5,848(%r15),3
	vst	%v8,1152(%r15),3
	vl	%v13,896(%r15),3
	vperm	%v8,%v6,%v0,%v14
	vperm	%v25,%v6,%v0,%v12
	vst	%v8,1216(%r15),3
	vperm	%v8,%v5,%v21,%v14
	vst	%v8,848(%r15),3
	vl	%v6,880(%r15),3
	vl	%v29,864(%r15),3
	vperm	%v8,%v5,%v21,%v12
	vl	%v5,1008(%r15),3
	vst	%v8,928(%r15),3
	vperm	%v21,%v6,%v5,%v14
	vperm	%v5,%v6,%v5,%v12
	vl	%v6,832(%r15),3
	vst	%v5,1024(%r15),3
	vperm	%v0,%v6,%v1,%v14
	vst	%v0,1008(%r15),3
	vl	%v0,912(%r15),3
	vperm	%v1,%v6,%v1,%v12
	vperm	%v6,%v0,%v2,%v14
	vperm	%v2,%v0,%v2,%v12
	vl	%v0,1072(%r15),3
	vperm	%v8,%v13,%v0,%v14
	vst	%v8,832(%r15),3
	vperm	%v8,%v13,%v0,%v12
	vl	%v13,960(%r15),3
	vl	%v0,1088(%r15),3
	vst	%v8,880(%r15),3
	vperm	%v8,%v13,%v0,%v14
	vperm	%v0,%v13,%v0,%v12
	vl	%v13,992(%r15),3
	vst	%v8,896(%r15),3
	vst	%v0,912(%r15),3
	vperm	%v8,%v29,%v13,%v12
	vperm	%v0,%v29,%v13,%v14
	vl	%v29,944(%r15),3
	vl	%v13,1040(%r15),3
	vperm	%v15,%v29,%v13,%v14
	vperm	%v5,%v29,%v13,%v12
	vl	%v29,504(%r15),3
	vl	%v13,784(%r15),3
	vst	%v5,944(%r15),3
	vst	%v15,864(%r15),3
	vperm	%v5,%v29,%v13,%v14
	vst	%v5,504(%r15),3
	vperm	%v5,%v29,%v13,%v12
	vl	%v29,192(%r15),3
	vperm	%v13,%v26,%v19,%v14
	vperm	%v26,%v26,%v19,%v12
	vl	%v19,800(%r15),3
	vst	%v5,536(%r15),3
	vl	%v15,720(%r15),3
	vperm	%v5,%v29,%v19,%v14
	vst	%v5,192(%r15),3
	vperm	%v5,%v29,%v19,%v12
	vperm	%v19,%v18,%v27,%v14
	vperm	%v27,%v18,%v27,%v12
	vl	%v18,464(%r15),3
	vl	%v29,736(%r15),3
	vst	%v5,624(%r15),3
	vperm	%v5,%v18,%v23,%v14
	vst	%v5,464(%r15),3
	vperm	%v5,%v18,%v23,%v12
	vperm	%v23,%v29,%v22,%v14
	vl	%v18,816(%r15),3
	vperm	%v29,%v29,%v22,%v12
	vl	%v22,520(%r15),3
	vst	%v5,640(%r15),3
	vperm	%v5,%v22,%v18,%v14
	vst	%v5,520(%r15),3
	vperm	%v5,%v22,%v18,%v12
	vl	%v22,752(%r15),3
	vst	%v5,704(%r15),3
	vl	%v5,160(%r15),3
	vperm	%v18,%v22,%v31,%v14
	vperm	%v31,%v22,%v31,%v12
	vl	%v22,688(%r15),3
	vperm	%v5,%v5,%v22,%v14
	vst	%v5,688(%r15),3
	vl	%v5,160(%r15),3
	vperm	%v5,%v5,%v22,%v12
	vperm	%v22,%v17,%v15,%v14
	vst	%v5,736(%r15),3
	vperm	%v5,%v30,%v24,%v14
	vst	%v5,720(%r15),3
	vperm	%v17,%v17,%v15,%v12
	vperm	%v5,%v30,%v24,%v12
	vperm	%v15,%v16,%v9,%v14
	vperm	%v30,%v16,%v9,%v12
	vl	%v9,176(%r15),3
	vl	%v16,656(%r15),3
	vst	%v5,752(%r15),3
	vl	%v24,608(%r15),3
	vperm	%v5,%v9,%v16,%v14
	vst	%v5,176(%r15),3
	vperm	%v5,%v9,%v16,%v12
	vl	%v9,592(%r15),3
	vst	%v5,656(%r15),3
	vperm	%v16,%v9,%v11,%v14
	vperm	%v5,%v9,%v11,%v12
	vl	%v11,488(%r15),3
	vl	%v9,672(%r15),3
	vst	%v5,768(%r15),3
	vperm	%v5,%v11,%v9,%v14
	vst	%v5,488(%r15),3
	vperm	%v5,%v11,%v9,%v12
	vl	%v11,208(%r15),3
	vst	%v5,592(%r15),3
	vperm	%v9,%v24,%v11,%v14
	vperm	%v5,%v24,%v11,%v12
	vl	%v24,1104(%r15),3
	vl	%v11,1168(%r15),3
	vst	%v5,608(%r15),3
	vst	%v9,208(%r15),3
	vperm	%v5,%v24,%v11,%v14
	vst	%v5,672(%r15),3
	vperm	%v5,%v24,%v11,%v12
	vl	%v24,1136(%r15),3
	vst	%v5,784(%r15),3
	vperm	%v11,%v24,%v7,%v14
	vperm	%v5,%v24,%v7,%v12
	vl	%v7,1120(%r15),3
	vst	%v5,1072(%r15),3
	vl	%v24,1184(%r15),3
	vperm	%v5,%v7,%v20,%v14
	vst	%v5,800(%r15),3
	vperm	%v5,%v7,%v20,%v12
	vperm	%v7,%v10,%v28,%v14
	vl	%v20,976(%r15),3
	vst	%v5,816(%r15),3
	vperm	%v28,%v10,%v28,%v12
	vperm	%v5,%v20,%v24,%v14
	vst	%v5,960(%r15),3
	vperm	%v5,%v20,%v24,%v12
	vl	%v20,1216(%r15),3
	vl	%v10,1056(%r15),3
	vst	%v5,976(%r15),3
	vperm	%v24,%v3,%v20,%v14
	vperm	%v3,%v3,%v20,%v12
	vl	%v20,1200(%r15),3
	vperm	%v5,%v10,%v20,%v14
	vst	%v5,992(%r15),3
	vperm	%v5,%v10,%v20,%v12
	vl	%v10,1152(%r15),3
	vst	%v5,1040(%r15),3
	vperm	%v20,%v10,%v25,%v14
	vperm	%v25,%v10,%v25,%v12
	vl	%v10,848(%r15),3
	vperm	%v5,%v10,%v21,%v14
	vst	%v5,848(%r15),3
	vperm	%v5,%v10,%v21,%v12
	vst	%v5,1056(%r15),3
	vl	%v5,1008(%r15),3
	vl	%v10,928(%r15),3
	vperm	%v21,%v5,%v6,%v14
	vperm	%v6,%v5,%v6,%v12
	vst	%v6,1088(%r15),3
	vl	%v6,1024(%r15),3
	vperm	%v9,%v10,%v6,%v14
	vperm	%v6,%v10,%v6,%v12
	vst	%v6,1008(%r15),3
	vperm	%v10,%v1,%v2,%v12
	vperm	%v6,%v1,%v2,%v14
	vl	%v2,832(%r15),3
	vl	%v1,896(%r15),3
	vst	%v9,928(%r15),3
	vl	%v9,504(%r15),3
	vperm	%v5,%v2,%v1,%v14
	vperm	%v1,%v2,%v1,%v12
	vl	%v2,864(%r15),3
	vst	%v1,896(%r15),3
	vst	%v5,832(%r15),3
	vperm	%v1,%v0,%v2,%v14
	vperm	%v0,%v0,%v2,%v12
	vst	%v0,160(%r15),3
	vl	%v2,912(%r15),3
	vl	%v0,880(%r15),3
	vperm	%v5,%v0,%v2,%v14
	vperm	%v2,%v0,%v2,%v12
	vst	%v5,864(%r15),3
	vl	%v5,944(%r15),3
	vst	%v2,880(%r15),3
	vperm	%v0,%v9,%v13,%v12
	vperm	%v2,%v8,%v5,%v14
	vperm	%v8,%v8,%v5,%v12
	vperm	%v5,%v9,%v13,%v14
	vst	%v5,504(%r15),3
	vl	%v5,536(%r15),3
	vl	%v13,720(%r15),3
	vst	%v0,912(%r15),3
	vperm	%v9,%v5,%v26,%v14
	vst	%v9,536(%r15),3
	vl	%v9,192(%r15),3
	vperm	%v26,%v5,%v26,%v12
	vperm	%v0,%v13,%v15,%v12
	vperm	%v5,%v9,%v19,%v14
	vperm	%v19,%v9,%v19,%v12
	vst	%v5,192(%r15),3
	vl	%v5,624(%r15),3
	vst	%v0,944(%r15),3
	vl	%v0,592(%r15),3
	vperm	%v9,%v5,%v27,%v14
	vst	%v9,624(%r15),3
	vl	%v9,464(%r15),3
	vst	%v26,48(%r2)
	vperm	%v27,%v5,%v27,%v12
	vperm	%v5,%v9,%v23,%v14
	vst	%v5,464(%r15),3
	vl	%v5,640(%r15),3
	vst	%v19,80(%r2)
	vperm	%v23,%v9,%v23,%v12
	vperm	%v9,%v5,%v29,%v14
	vst	%v9,640(%r15),3
	vl	%v9,520(%r15),3
	vst	%v27,112(%r2)
	vperm	%v29,%v5,%v29,%v12
	vperm	%v5,%v9,%v18,%v14
	vst	%v5,520(%r15),3
	vl	%v5,704(%r15),3
	vst	%v23,144(%r2)
	vperm	%v18,%v9,%v18,%v12
	vperm	%v9,%v5,%v31,%v14
	vst	%v9,704(%r15),3
	vl	%v9,688(%r15),3
	vst	%v29,176(%r2)
	vperm	%v31,%v5,%v31,%v12
	vperm	%v5,%v9,%v22,%v14
	vst	%v5,688(%r15),3
	vl	%v5,736(%r15),3
	vst	%v18,208(%r2)
	vperm	%v22,%v9,%v22,%v12
	vperm	%v9,%v5,%v17,%v14
	vperm	%v17,%v5,%v17,%v12
	vperm	%v5,%v13,%v15,%v14
	vl	%v13,752(%r15),3
	vst	%v9,736(%r15),3
	vl	%v15,656(%r15),3
	vperm	%v9,%v13,%v30,%v14
	vperm	%v30,%v13,%v30,%v12
	vl	%v13,176(%r15),3
	vst	%v5,720(%r15),3
	vst	%v9,752(%r15),3
	vperm	%v5,%v13,%v16,%v14
	vperm	%v16,%v13,%v16,%v12
	vl	%v13,768(%r15),3
	vst	%v5,176(%r15),3
	vst	%v31,240(%r2)
	vperm	%v9,%v15,%v13,%v14
	vperm	%v5,%v15,%v13,%v12
	vl	%v13,488(%r15),3
	vl	%v15,208(%r15),3
	vst	%v9,656(%r15),3
	vst	%v5,768(%r15),3
	vperm	%v9,%v13,%v15,%v14
	vst	%v9,208(%r15),3
	vperm	%v9,%v13,%v15,%v12
	vl	%v15,608(%r15),3
	vst	%v22,272(%r2)
	vst	%v17,304(%r2)
	vperm	%v5,%v0,%v15,%v14
	vperm	%v13,%v0,%v15,%v12
	vl	%v15,672(%r15),3
	vst	%v5,488(%r15),3
	vst	%v30,368(%r2)
	vperm	%v0,%v15,%v11,%v12
	vperm	%v5,%v15,%v11,%v14
	vst	%v0,608(%r15),3
	vl	%v11,1072(%r15),3
	vl	%v0,784(%r15),3
	vst	%v5,592(%r15),3
	vst	%v16,400(%r2)
	vst	%v9,464(%r2)
	vperm	%v5,%v0,%v11,%v14
	vperm	%v15,%v0,%v11,%v12
	vl	%v11,800(%r15),3
	vst	%v5,672(%r15),3
	vst	%v13,496(%r2)
	vperm	%v5,%v11,%v7,%v14
	vperm	%v7,%v11,%v7,%v12
	vl	%v11,816(%r15),3
	vst	%v5,784(%r15),3
	vst	%v15,560(%r2)
	vperm	%v5,%v11,%v28,%v14
	vperm	%v28,%v11,%v28,%v12
	vl	%v11,960(%r15),3
	vst	%v5,800(%r15),3
	vst	%v7,592(%r2)
	vperm	%v5,%v11,%v24,%v14
	vperm	%v24,%v11,%v24,%v12
	vl	%v11,976(%r15),3
	vst	%v5,816(%r15),3
	vperm	%v0,%v11,%v3,%v12
	vperm	%v5,%v11,%v3,%v14
	vl	%v11,992(%r15),3
	vl	%v3,1040(%r15),3
	vst	%v5,960(%r15),3
	vperm	%v5,%v11,%v20,%v14
	vperm	%v20,%v11,%v20,%v12
	vl	%v11,848(%r15),3
	vst	%v5,992(%r15),3
	vst	%v0,976(%r15),3
	vperm	%v5,%v3,%v25,%v14
	vperm	%v25,%v3,%v25,%v12
	vst	%v5,1024(%r15),3
	vl	%v3,1088(%r15),3
	vl	%v0,160(%r15),3
	vperm	%v5,%v11,%v21,%v14
	vperm	%v21,%v11,%v21,%v12
	vl	%v11,1056(%r15),3
	vst	%v5,848(%r15),3
	vperm	%v5,%v11,%v3,%v14
	vst	%v5,1040(%r15),3
	vperm	%v5,%v11,%v3,%v12
	vl	%v3,928(%r15),3
	vperm	%v11,%v3,%v6,%v14
	vperm	%v6,%v3,%v6,%v12
	vst	%v6,1056(%r15),3
	vl	%v3,1008(%r15),3
	vl	%v6,832(%r15),3
	vst	%v11,928(%r15),3
	vperm	%v11,%v3,%v10,%v14
	vperm	%v10,%v3,%v10,%v12
	vperm	%v3,%v6,%v1,%v14
	vperm	%v6,%v6,%v1,%v12
	vl	%v1,896(%r15),3
	vst	%v6,832(%r15),3
	vperm	%v6,%v1,%v0,%v14
	vperm	%v0,%v1,%v0,%v12
	vst	%v0,160(%r15),3
	vl	%v0,864(%r15),3
	vperm	%v1,%v0,%v2,%v14
	vperm	%v0,%v0,%v2,%v12
	vl	%v2,880(%r15),3
	vst	%v0,864(%r15),3
	vperm	%v0,%v2,%v8,%v14
	vperm	%v8,%v2,%v8,%v12
	vl	%v2,504(%r15),3
	vst	%v2,0(%r2)
	vl	%v2,912(%r15),3
	vst	%v2,16(%r2)
	vl	%v2,536(%r15),3
	vst	%v2,32(%r2)
	vl	%v2,192(%r15),3
	vst	%v2,64(%r2)
	vl	%v2,624(%r15),3
	vst	%v2,96(%r2)
	vl	%v2,464(%r15),3
	vst	%v2,128(%r2)
	vl	%v2,640(%r15),3
	vst	%v2,160(%r2)
	vl	%v2,520(%r15),3
	vst	%v2,192(%r2)
	vl	%v2,704(%r15),3
	vst	%v2,224(%r2)
	vl	%v2,688(%r15),3
	vst	%v2,256(%r2)
	vl	%v2,736(%r15),3
	vst	%v2,288(%r2)
	vl	%v2,720(%r15),3
	vst	%v2,320(%r2)
	vl	%v2,944(%r15),3
	vst	%v2,336(%r2)
	vl	%v2,752(%r15),3
	vst	%v2,352(%r2)
	vl	%v2,176(%r15),3
	vst	%v2,384(%r2)
	vl	%v2,656(%r15),3
	vst	%v2,416(%r2)
	vl	%v2,768(%r15),3
	vst	%v2,432(%r2)
	vl	%v2,208(%r15),3
	vst	%v2,448(%r2)
	vl	%v2,488(%r15),3
	vst	%v2,480(%r2)
	vl	%v2,592(%r15),3
	vst	%v2,512(%r2)
	vl	%v2,608(%r15),3
	vst	%v2,528(%r2)
	vl	%v2,672(%r15),3
	vst	%v2,544(%r2)
	vl	%v2,784(%r15),3
	vst	%v2,576(%r2)
	vl	%v2,800(%r15),3
	lg	%r1,224(%r15)
	vst	%v28,624(%r2)
	agr	%r1,%r0
	stg	%r1,224(%r15)
	lg	%r1,232(%r15)
	vst	%v2,608(%r2)
	agr	%r1,%r0
	stg	%r1,232(%r15)
	lg	%r1,240(%r15)
	vl	%v2,816(%r15),3
	agr	%r1,%r0
	stg	%r1,240(%r15)
	lg	%r1,456(%r15)
	vst	%v2,640(%r2)
	agr	%r1,%r0
	stg	%r1,456(%r15)
	lg	%r1,248(%r15)
	vl	%v2,960(%r15),3
	agr	%r1,%r0
	stg	%r1,248(%r15)
	lg	%r1,256(%r15)
	vst	%v2,672(%r2)
	agr	%r1,%r0
	stg	%r1,256(%r15)
	lg	%r1,264(%r15)
	vl	%v2,976(%r15),3
	agr	%r1,%r0
	stg	%r1,264(%r15)
	lg	%r1,280(%r15)
	vst	%v2,688(%r2)
	agr	%r1,%r0
	stg	%r1,280(%r15)
	lg	%r1,296(%r15)
	vl	%v2,992(%r15),3
	agr	%r1,%r0
	stg	%r1,296(%r15)
	lg	%r1,312(%r15)
	vst	%v2,704(%r2)
	agr	%r1,%r0
	stg	%r1,312(%r15)
	lg	%r1,328(%r15)
	vl	%v2,1024(%r15),3
	agr	%r1,%r0
	stg	%r1,328(%r15)
	agrk	%r1,%r5,%r0
	stg	%r1,464(%r15)
	lg	%r1,344(%r15)
	vst	%v2,736(%r2)
	agr	%r1,%r0
	stg	%r1,344(%r15)
	vl	%v2,848(%r15),3
	lg	%r1,360(%r15)
	lg	%r5,400(%r15)
	agr	%r1,%r0
	stg	%r1,360(%r15)
	vst	%v2,768(%r2)
	lg	%r1,376(%r15)
	vl	%v2,1040(%r15),3
	agr	%r1,%r0
	stg	%r1,376(%r15)
	vst	%v2,800(%r2)
	lg	%r1,392(%r15)
	vl	%v2,928(%r15),3
	agr	%r1,%r0
	stg	%r1,392(%r15)
	vst	%v2,832(%r2)
	agrk	%r1,%r5,%r0
	stg	%r1,400(%r15)
	lg	%r5,408(%r15)
	vl	%v2,1056(%r15),3
	agrk	%r1,%r5,%r0
	stg	%r1,408(%r15)
	lg	%r5,416(%r15)
	vst	%v2,848(%r2)
	vl	%v2,832(%r15),3
	agrk	%r1,%r5,%r0
	stg	%r1,416(%r15)
	lg	%r5,424(%r15)
	vst	%v2,912(%r2)
	agrk	%r1,%r5,%r0
	stg	%r1,424(%r15)
	vl	%v2,160(%r15),3
	lg	%r1,432(%r15)
	lg	%r5,440(%r15)
	vst	%v2,944(%r2)
	agr	%r1,%r0
	stg	%r1,432(%r15)
	vl	%v2,864(%r15),3
	agrk	%r1,%r5,%r0
	stg	%r1,440(%r15)
	lg	%r1,448(%r15)
	vst	%v24,656(%r2)
	vst	%v20,720(%r2)
	vst	%v25,752(%r2)
	vst	%v21,784(%r2)
	vst	%v5,816(%r2)
	vst	%v11,864(%r2)
	vst	%v10,880(%r2)
	vst	%v3,896(%r2)
	vst	%v6,928(%r2)
	vst	%v1,960(%r2)
	vst	%v2,976(%r2)
	vst	%v0,992(%r2)
	vst	%v8,1008(%r2)
	agr	%r1,%r0
	stg	%r1,448(%r15)
	lg	%r1,1408(%r15)
	aghi	%r2,1024
	cgrjnlh	%r2,%r1,.L635
	j	.L457
.L635:
	lg	%r2,480(%r15)
	l	%r3,1540(%r15)
	l	%r4,1480(%r15)
	lg	%r11,1424(%r15)
	lg	%r1,1432(%r15)
	lg	%r8,1440(%r15)
	ag	%r2,1560(%r15)
	crje	%r3,%r4,.L459
	lg	%r3,1968(%r15)
	l	%r4,1536(%r15)
	llc	%r3,0(%r3,%r1)
	ar	%r3,%r8
	sth	%r3,0(%r2)
	lg	%r3,552(%r15)
	llc	%r3,0(%r3,%r1)
	ar	%r3,%r8
	sth	%r3,2(%r2)
	lg	%r3,1888(%r15)
	llc	%r3,0(%r3,%r1)
	ar	%r3,%r8
	sth	%r3,4(%r2)
	lg	%r3,1960(%r15)
	llc	%r3,0(%r3,%r1)
	ar	%r3,%r8
	sth	%r3,6(%r2)
	lg	%r3,1880(%r15)
	llc	%r3,0(%r3,%r1)
	ar	%r3,%r8
	sth	%r3,8(%r2)
	lg	%r3,1952(%r15)
	llc	%r3,0(%r3,%r1)
	ar	%r3,%r8
	sth	%r3,10(%r2)
	lg	%r3,1872(%r15)
	llc	%r3,0(%r3,%r1)
	ar	%r3,%r8
	sth	%r3,12(%r2)
	lg	%r3,1944(%r15)
	llc	%r3,0(%r3,%r1)
	ar	%r3,%r8
	sth	%r3,14(%r2)
	lg	%r3,1864(%r15)
	llc	%r3,0(%r3,%r1)
	ar	%r3,%r8
	sth	%r3,16(%r2)
	lg	%r3,1936(%r15)
	llc	%r3,0(%r3,%r1)
	ar	%r3,%r8
	sth	%r3,18(%r2)
	lg	%r3,1856(%r15)
	llc	%r3,0(%r3,%r1)
	ar	%r3,%r8
	sth	%r3,20(%r2)
	lg	%r3,1928(%r15)
	llc	%r3,0(%r3,%r1)
	ar	%r3,%r8
	sth	%r3,22(%r2)
	lg	%r3,1848(%r15)
	llc	%r3,0(%r3,%r1)
	ar	%r3,%r8
	sth	%r3,24(%r2)
	lg	%r3,1920(%r15)
	llc	%r3,0(%r3,%r1)
	ar	%r3,%r8
	sth	%r3,26(%r2)
	lg	%r3,2000(%r15)
	llc	%r3,0(%r3,%r1)
	ar	%r3,%r8
	sth	%r3,28(%r2)
	lg	%r3,2032(%r15)
	llc	%r3,0(%r3,%r1)
	ar	%r3,%r8
	sth	%r3,30(%r2)
	lg	%r3,1840(%r15)
	llc	%r3,0(%r3,%r1)
	ar	%r3,%r8
	sth	%r3,32(%r2)
	lg	%r3,1912(%r15)
	llc	%r3,0(%r3,%r1)
	ar	%r3,%r8
	sth	%r3,34(%r2)
	lg	%r3,1984(%r15)
	llc	%r3,0(%r3,%r1)
	ar	%r3,%r8
	sth	%r3,36(%r2)
	lg	%r3,2024(%r15)
	llc	%r3,0(%r3,%r1)
	ar	%r3,%r8
	sth	%r3,38(%r2)
	lg	%r3,1816(%r15)
	llc	%r3,0(%r3,%r1)
	ar	%r3,%r8
	sth	%r3,40(%r2)
	lg	%r3,1832(%r15)
	llc	%r3,0(%r3,%r1)
	ar	%r3,%r8
	sth	%r3,42(%r2)
	lg	%r3,1904(%r15)
	llc	%r3,0(%r3,%r1)
	ar	%r3,%r8
	sth	%r3,44(%r2)
	lg	%r3,1976(%r15)
	llc	%r3,0(%r3,%r1)
	ar	%r3,%r8
	sth	%r3,46(%r2)
	lg	%r3,1992(%r15)
	llc	%r3,0(%r3,%r1)
	ar	%r3,%r8
	sth	%r3,48(%r2)
	lg	%r3,2008(%r15)
	llc	%r3,0(%r3,%r1)
	ar	%r3,%r8
	sth	%r3,50(%r2)
	lg	%r3,2016(%r15)
	llc	%r3,0(%r3,%r1)
	ar	%r3,%r8
	sth	%r3,52(%r2)
	lg	%r3,2040(%r15)
	llc	%r3,0(%r3,%r1)
	ar	%r3,%r8
	sth	%r3,54(%r2)
	lg	%r3,1800(%r15)
	llc	%r3,0(%r3,%r1)
	ar	%r3,%r8
	sth	%r3,56(%r2)
	lg	%r3,1808(%r15)
	llc	%r3,0(%r3,%r1)
	ar	%r3,%r8
	sth	%r3,58(%r2)
	lg	%r3,1824(%r15)
	llc	%r3,0(%r3,%r1)
	ar	%r3,%r8
	sth	%r3,60(%r2)
	lg	%r3,1896(%r15)
	llc	%r3,0(%r3,%r1)
	ar	%r3,%r8
	sth	%r3,62(%r2)
	l	%r3,2296(%r15)
	crjle	%r4,%r3,.L459
	lg	%r3,560(%r15)
	llc	%r3,0(%r3,%r1)
	ar	%r3,%r8
	sth	%r3,64(%r2)
	lg	%r3,568(%r15)
	llc	%r3,0(%r3,%r1)
	ar	%r3,%r8
	sth	%r3,66(%r2)
	lg	%r3,2056(%r15)
	llc	%r3,0(%r3,%r1)
	ar	%r3,%r8
	sth	%r3,68(%r2)
	lg	%r3,2064(%r15)
	llc	%r3,0(%r3,%r1)
	ar	%r3,%r8
	sth	%r3,70(%r2)
	lg	%r3,2072(%r15)
	llc	%r3,0(%r3,%r1)
	ar	%r3,%r8
	sth	%r3,72(%r2)
	lg	%r3,2080(%r15)
	llc	%r3,0(%r3,%r1)
	ar	%r3,%r8
	sth	%r3,74(%r2)
	lg	%r3,2088(%r15)
	llc	%r3,0(%r3,%r1)
	ar	%r3,%r8
	sth	%r3,76(%r2)
	lg	%r3,2096(%r15)
	llc	%r3,0(%r3,%r1)
	ar	%r3,%r8
	sth	%r3,78(%r2)
	lg	%r3,2104(%r15)
	llc	%r3,0(%r3,%r1)
	ar	%r3,%r8
	sth	%r3,80(%r2)
	lg	%r3,2112(%r15)
	llc	%r3,0(%r3,%r1)
	ar	%r3,%r8
	sth	%r3,82(%r2)
	lg	%r3,2120(%r15)
	llc	%r3,0(%r3,%r1)
	ar	%r3,%r8
	sth	%r3,84(%r2)
	lg	%r3,2128(%r15)
	llc	%r3,0(%r3,%r1)
	ar	%r3,%r8
	sth	%r3,86(%r2)
	lg	%r3,2136(%r15)
	llc	%r3,0(%r3,%r1)
	ar	%r3,%r8
	sth	%r3,88(%r2)
	lg	%r3,2144(%r15)
	llc	%r3,0(%r3,%r1)
	ar	%r3,%r8
	sth	%r3,90(%r2)
	lg	%r3,2152(%r15)
	llc	%r3,0(%r3,%r1)
	ar	%r3,%r8
	sth	%r3,92(%r2)
	lg	%r3,2160(%r15)
	llc	%r3,0(%r3,%r1)
	ar	%r3,%r8
	sth	%r3,94(%r2)
	lg	%r3,2168(%r15)
	llc	%r3,0(%r3,%r1)
	ar	%r3,%r8
	sth	%r3,96(%r2)
	lg	%r3,2176(%r15)
	llc	%r3,0(%r3,%r1)
	ar	%r3,%r8
	sth	%r3,98(%r2)
	lg	%r3,2184(%r15)
	llc	%r3,0(%r3,%r1)
	ar	%r3,%r8
	sth	%r3,100(%r2)
	lg	%r3,2192(%r15)
	llc	%r3,0(%r3,%r1)
	ar	%r3,%r8
	sth	%r3,102(%r2)
	lg	%r3,2200(%r15)
	llc	%r3,0(%r3,%r1)
	ar	%r3,%r8
	sth	%r3,104(%r2)
	lg	%r3,2208(%r15)
	llc	%r3,0(%r3,%r1)
	ar	%r3,%r8
	sth	%r3,106(%r2)
	lg	%r3,2216(%r15)
	llc	%r3,0(%r3,%r1)
	ar	%r3,%r8
	sth	%r3,108(%r2)
	lg	%r3,2224(%r15)
	llc	%r3,0(%r3,%r1)
	ar	%r3,%r8
	sth	%r3,110(%r2)
	lg	%r3,2232(%r15)
	llc	%r3,0(%r3,%r1)
	ar	%r3,%r8
	sth	%r3,112(%r2)
	lg	%r3,2240(%r15)
	llc	%r3,0(%r3,%r1)
	ar	%r3,%r8
	sth	%r3,114(%r2)
	lg	%r3,2248(%r15)
	llc	%r3,0(%r3,%r1)
	ar	%r3,%r8
	sth	%r3,116(%r2)
	lg	%r3,2256(%r15)
	llc	%r3,0(%r3,%r1)
	ar	%r3,%r8
	sth	%r3,118(%r2)
	lg	%r3,2264(%r15)
	llc	%r3,0(%r3,%r1)
	ar	%r3,%r8
	sth	%r3,120(%r2)
	lg	%r3,2272(%r15)
	llc	%r3,0(%r3,%r1)
	ar	%r3,%r8
	sth	%r3,122(%r2)
	lg	%r3,2280(%r15)
	llc	%r3,0(%r3,%r1)
	ar	%r3,%r8
	sth	%r3,124(%r2)
	lg	%r3,2288(%r15)
	llc	%r3,0(%r3,%r1)
	ar	%r3,%r8
	sth	%r3,126(%r2)
	l	%r3,2300(%r15)
	crjle	%r4,%r3,.L459
	lg	%r3,576(%r15)
	llc	%r3,0(%r3,%r1)
	ar	%r3,%r8
	sth	%r3,128(%r2)
	lg	%r3,584(%r15)
	llc	%r3,0(%r3,%r1)
	ar	%r3,%r8
	sth	%r3,130(%r2)
	lg	%r3,2312(%r15)
	llc	%r3,0(%r3,%r1)
	ar	%r3,%r8
	sth	%r3,132(%r2)
	lg	%r3,2320(%r15)
	llc	%r3,0(%r3,%r1)
	ar	%r3,%r8
	sth	%r3,134(%r2)
	lg	%r3,2328(%r15)
	llc	%r3,0(%r3,%r1)
	ar	%r3,%r8
	sth	%r3,136(%r2)
	lg	%r3,2336(%r15)
	llc	%r3,0(%r3,%r1)
	ar	%r3,%r8
	sth	%r3,138(%r2)
	lg	%r3,2344(%r15)
	llc	%r3,0(%r3,%r1)
	ar	%r3,%r8
	sth	%r3,140(%r2)
	lg	%r3,2352(%r15)
	llc	%r3,0(%r3,%r1)
	ar	%r3,%r8
	sth	%r3,142(%r2)
	lg	%r3,2360(%r15)
	llc	%r3,0(%r3,%r1)
	ar	%r3,%r8
	sth	%r3,144(%r2)
	lg	%r3,2368(%r15)
	llc	%r3,0(%r3,%r1)
	ar	%r3,%r8
	sth	%r3,146(%r2)
	lg	%r3,2376(%r15)
	llc	%r3,0(%r3,%r1)
	ar	%r3,%r8
	sth	%r3,148(%r2)
	lg	%r3,2384(%r15)
	llc	%r3,0(%r3,%r1)
	ar	%r3,%r8
	sth	%r3,150(%r2)
	lg	%r3,2392(%r15)
	llc	%r3,0(%r3,%r1)
	ar	%r3,%r8
	sth	%r3,152(%r2)
	lg	%r3,2400(%r15)
	llc	%r3,0(%r3,%r1)
	ar	%r3,%r8
	sth	%r3,154(%r2)
	lg	%r3,2408(%r15)
	llc	%r3,0(%r3,%r1)
	ar	%r3,%r8
	sth	%r3,156(%r2)
	lg	%r3,2416(%r15)
	llc	%r3,0(%r3,%r1)
	ar	%r3,%r8
	sth	%r3,158(%r2)
	lg	%r3,2424(%r15)
	llc	%r3,0(%r3,%r1)
	ar	%r3,%r8
	sth	%r3,160(%r2)
	lg	%r3,2432(%r15)
	llc	%r3,0(%r3,%r1)
	ar	%r3,%r8
	sth	%r3,162(%r2)
	lg	%r3,2440(%r15)
	llc	%r3,0(%r3,%r1)
	ar	%r3,%r8
	sth	%r3,164(%r2)
	lg	%r3,2448(%r15)
	llc	%r3,0(%r3,%r1)
	ar	%r3,%r8
	sth	%r3,166(%r2)
	lg	%r3,2456(%r15)
	llc	%r3,0(%r3,%r1)
	ar	%r3,%r8
	sth	%r3,168(%r2)
	lg	%r3,2464(%r15)
	llc	%r3,0(%r3,%r1)
	ar	%r3,%r8
	sth	%r3,170(%r2)
	lg	%r3,2472(%r15)
	llc	%r3,0(%r3,%r1)
	ar	%r3,%r8
	sth	%r3,172(%r2)
	lg	%r3,2480(%r15)
	llc	%r3,0(%r3,%r1)
	ar	%r3,%r8
	sth	%r3,174(%r2)
	lg	%r3,2488(%r15)
	llc	%r3,0(%r3,%r1)
	ar	%r3,%r8
	sth	%r3,176(%r2)
	lg	%r3,2496(%r15)
	llc	%r3,0(%r3,%r1)
	ar	%r3,%r8
	sth	%r3,178(%r2)
	lg	%r3,2504(%r15)
	llc	%r3,0(%r3,%r1)
	ar	%r3,%r8
	sth	%r3,180(%r2)
	lg	%r3,2512(%r15)
	llc	%r3,0(%r3,%r1)
	ar	%r3,%r8
	sth	%r3,182(%r2)
	lg	%r3,2520(%r15)
	llc	%r3,0(%r3,%r1)
	ar	%r3,%r8
	sth	%r3,184(%r2)
	lg	%r3,2528(%r15)
	llc	%r3,0(%r3,%r1)
	ar	%r3,%r8
	sth	%r3,186(%r2)
	lg	%r3,2536(%r15)
	llc	%r3,0(%r3,%r1)
	ar	%r3,%r8
	sth	%r3,188(%r2)
	lg	%r3,2544(%r15)
	llc	%r3,0(%r3,%r1)
	ar	%r3,%r8
	sth	%r3,190(%r2)
	l	%r3,2800(%r15)
	crjle	%r4,%r3,.L459
	lg	%r3,1360(%r15)
	llc	%r3,0(%r3,%r1)
	ar	%r3,%r8
	sth	%r3,192(%r2)
	lg	%r3,1368(%r15)
	llc	%r3,0(%r3,%r1)
	ar	%r3,%r8
	sth	%r3,194(%r2)
	lg	%r3,2560(%r15)
	llc	%r3,0(%r3,%r1)
	ar	%r3,%r8
	sth	%r3,196(%r2)
	lg	%r3,2568(%r15)
	llc	%r3,0(%r3,%r1)
	ar	%r3,%r8
	sth	%r3,198(%r2)
	lg	%r3,2576(%r15)
	llc	%r3,0(%r3,%r1)
	ar	%r3,%r8
	sth	%r3,200(%r2)
	lg	%r3,2584(%r15)
	llc	%r3,0(%r3,%r1)
	ar	%r3,%r8
	sth	%r3,202(%r2)
	lg	%r3,2592(%r15)
	llc	%r3,0(%r3,%r1)
	ar	%r3,%r8
	sth	%r3,204(%r2)
	lg	%r3,2600(%r15)
	llc	%r3,0(%r3,%r1)
	ar	%r3,%r8
	sth	%r3,206(%r2)
	lg	%r3,2608(%r15)
	llc	%r3,0(%r3,%r1)
	ar	%r3,%r8
	sth	%r3,208(%r2)
	lg	%r3,2616(%r15)
	llc	%r3,0(%r3,%r1)
	ar	%r3,%r8
	sth	%r3,210(%r2)
	lg	%r3,2624(%r15)
	llc	%r3,0(%r3,%r1)
	ar	%r3,%r8
	sth	%r3,212(%r2)
	lg	%r3,2632(%r15)
	llc	%r3,0(%r3,%r1)
	ar	%r3,%r8
	sth	%r3,214(%r2)
	lg	%r3,2640(%r15)
	llc	%r3,0(%r3,%r1)
	ar	%r3,%r8
	sth	%r3,216(%r2)
	lg	%r3,2648(%r15)
	llc	%r3,0(%r3,%r1)
	ar	%r3,%r8
	sth	%r3,218(%r2)
	lg	%r3,2656(%r15)
	llc	%r3,0(%r3,%r1)
	ar	%r3,%r8
	sth	%r3,220(%r2)
	lg	%r3,2664(%r15)
	llc	%r3,0(%r3,%r1)
	ar	%r3,%r8
	sth	%r3,222(%r2)
	lg	%r3,2672(%r15)
	llc	%r3,0(%r3,%r1)
	ar	%r3,%r8
	sth	%r3,224(%r2)
	lg	%r3,2680(%r15)
	llc	%r3,0(%r3,%r1)
	ar	%r3,%r8
	sth	%r3,226(%r2)
	lg	%r3,2688(%r15)
	llc	%r3,0(%r3,%r1)
	ar	%r3,%r8
	sth	%r3,228(%r2)
	lg	%r3,2696(%r15)
	llc	%r3,0(%r3,%r1)
	ar	%r3,%r8
	sth	%r3,230(%r2)
	lg	%r3,2704(%r15)
	llc	%r3,0(%r3,%r1)
	ar	%r3,%r8
	sth	%r3,232(%r2)
	lg	%r3,2712(%r15)
	llc	%r3,0(%r3,%r1)
	ar	%r3,%r8
	sth	%r3,234(%r2)
	lg	%r3,2720(%r15)
	llc	%r3,0(%r3,%r1)
	ar	%r3,%r8
	sth	%r3,236(%r2)
	lg	%r3,2728(%r15)
	llc	%r3,0(%r3,%r1)
	ar	%r3,%r8
	sth	%r3,238(%r2)
	lg	%r3,2736(%r15)
	llc	%r3,0(%r3,%r1)
	ar	%r3,%r8
	sth	%r3,240(%r2)
	lg	%r3,2744(%r15)
	llc	%r3,0(%r3,%r1)
	ar	%r3,%r8
	sth	%r3,242(%r2)
	lg	%r3,2752(%r15)
	llc	%r3,0(%r3,%r1)
	ar	%r3,%r8
	sth	%r3,244(%r2)
	lg	%r3,2760(%r15)
	llc	%r3,0(%r3,%r1)
	ar	%r3,%r8
	sth	%r3,246(%r2)
	lg	%r3,2768(%r15)
	llc	%r3,0(%r3,%r1)
	ar	%r3,%r8
	sth	%r3,248(%r2)
	lg	%r3,2776(%r15)
	llc	%r3,0(%r3,%r1)
	ar	%r3,%r8
	sth	%r3,250(%r2)
	lg	%r3,2784(%r15)
	llc	%r3,0(%r3,%r1)
	ar	%r3,%r8
	sth	%r3,252(%r2)
	lg	%r3,2792(%r15)
	llc	%r3,0(%r3,%r1)
	ar	%r3,%r8
	sth	%r3,254(%r2)
	l	%r3,2804(%r15)
	crjle	%r4,%r3,.L459
	lg	%r3,1376(%r15)
	llc	%r3,0(%r3,%r1)
	ar	%r3,%r8
	sth	%r3,256(%r2)
	lg	%r3,1384(%r15)
	llc	%r3,0(%r3,%r1)
	ar	%r3,%r8
	sth	%r3,258(%r2)
	lg	%r3,2896(%r15)
	llc	%r3,0(%r3,%r1)
	ar	%r3,%r8
	sth	%r3,260(%r2)
	lg	%r3,2904(%r15)
	llc	%r3,0(%r3,%r1)
	ar	%r3,%r8
	sth	%r3,262(%r2)
	lg	%r3,2912(%r15)
	llc	%r3,0(%r3,%r1)
	ar	%r3,%r8
	sth	%r3,264(%r2)
	lg	%r3,2920(%r15)
	llc	%r3,0(%r3,%r1)
	ar	%r3,%r8
	sth	%r3,266(%r2)
	lg	%r3,2928(%r15)
	llc	%r3,0(%r3,%r1)
	ar	%r3,%r8
	sth	%r3,268(%r2)
	lg	%r3,2936(%r15)
	llc	%r3,0(%r3,%r1)
	ar	%r3,%r8
	sth	%r3,270(%r2)
	lg	%r3,2944(%r15)
	llc	%r3,0(%r3,%r1)
	ar	%r3,%r8
	sth	%r3,272(%r2)
	lg	%r3,2952(%r15)
	llc	%r3,0(%r3,%r1)
	ar	%r3,%r8
	sth	%r3,274(%r2)
	lg	%r3,2960(%r15)
	llc	%r3,0(%r3,%r1)
	ar	%r3,%r8
	sth	%r3,276(%r2)
	lg	%r3,2968(%r15)
	llc	%r3,0(%r3,%r1)
	ar	%r3,%r8
	sth	%r3,278(%r2)
	lg	%r3,2976(%r15)
	llc	%r3,0(%r3,%r1)
	ar	%r3,%r8
	sth	%r3,280(%r2)
	lg	%r3,2984(%r15)
	llc	%r3,0(%r3,%r1)
	ar	%r3,%r8
	sth	%r3,282(%r2)
	lg	%r3,2992(%r15)
	llc	%r3,0(%r3,%r1)
	ar	%r3,%r8
	sth	%r3,284(%r2)
	lg	%r3,3000(%r15)
	llc	%r3,0(%r3,%r1)
	ar	%r3,%r8
	sth	%r3,286(%r2)
	lg	%r3,3008(%r15)
	llc	%r3,0(%r3,%r1)
	ar	%r3,%r8
	sth	%r3,288(%r2)
	lg	%r3,3016(%r15)
	llc	%r3,0(%r3,%r1)
	ar	%r3,%r8
	sth	%r3,290(%r2)
	lg	%r3,3024(%r15)
	llc	%r3,0(%r3,%r1)
	ar	%r3,%r8
	sth	%r3,292(%r2)
	lg	%r3,3032(%r15)
	llc	%r3,0(%r3,%r1)
	ar	%r3,%r8
	sth	%r3,294(%r2)
	lg	%r3,3040(%r15)
	llc	%r3,0(%r3,%r1)
	ar	%r3,%r8
	sth	%r3,296(%r2)
	lg	%r3,2808(%r15)
	llc	%r3,0(%r3,%r1)
	ar	%r3,%r8
	sth	%r3,298(%r2)
	lg	%r3,2816(%r15)
	llc	%r3,0(%r3,%r1)
	ar	%r3,%r8
	sth	%r3,300(%r2)
	lg	%r3,2824(%r15)
	llc	%r3,0(%r3,%r1)
	ar	%r3,%r8
	sth	%r3,302(%r2)
	lg	%r3,2832(%r15)
	llc	%r3,0(%r3,%r1)
	ar	%r3,%r8
	sth	%r3,304(%r2)
	lg	%r3,2840(%r15)
	llc	%r3,0(%r3,%r1)
	ar	%r3,%r8
	sth	%r3,306(%r2)
	lg	%r3,2848(%r15)
	llc	%r3,0(%r3,%r1)
	ar	%r3,%r8
	sth	%r3,308(%r2)
	lg	%r3,2856(%r15)
	llc	%r3,0(%r3,%r1)
	ar	%r3,%r8
	sth	%r3,310(%r2)
	lg	%r3,2864(%r15)
	llc	%r3,0(%r3,%r1)
	ar	%r3,%r8
	sth	%r3,312(%r2)
	lg	%r3,2872(%r15)
	llc	%r3,0(%r3,%r1)
	ar	%r3,%r8
	sth	%r3,314(%r2)
	lg	%r3,2880(%r15)
	llc	%r3,0(%r3,%r1)
	ar	%r3,%r8
	sth	%r3,316(%r2)
	lg	%r3,2888(%r15)
	llc	%r3,0(%r3,%r1)
	ar	%r3,%r8
	sth	%r3,318(%r2)
	l	%r3,3312(%r15)
	crjle	%r4,%r3,.L459
	lg	%r3,3064(%r15)
	llc	%r3,0(%r3,%r1)
	ar	%r3,%r8
	sth	%r3,320(%r2)
	lg	%r3,2552(%r15)
	llc	%r3,0(%r3,%r1)
	ar	%r3,%r8
	sth	%r3,322(%r2)
	lg	%r3,3072(%r15)
	llc	%r3,0(%r3,%r1)
	ar	%r3,%r8
	sth	%r3,324(%r2)
	lg	%r3,3080(%r15)
	llc	%r3,0(%r3,%r1)
	ar	%r3,%r8
	sth	%r3,326(%r2)
	lg	%r3,3088(%r15)
	llc	%r3,0(%r3,%r1)
	ar	%r3,%r8
	sth	%r3,328(%r2)
	lg	%r3,3096(%r15)
	llc	%r3,0(%r3,%r1)
	ar	%r3,%r8
	sth	%r3,330(%r2)
	lg	%r3,3104(%r15)
	llc	%r3,0(%r3,%r1)
	ar	%r3,%r8
	sth	%r3,332(%r2)
	lg	%r3,3112(%r15)
	llc	%r3,0(%r3,%r1)
	ar	%r3,%r8
	sth	%r3,334(%r2)
	lg	%r3,3120(%r15)
	llc	%r3,0(%r3,%r1)
	ar	%r3,%r8
	sth	%r3,336(%r2)
	lg	%r3,3128(%r15)
	llc	%r3,0(%r3,%r1)
	ar	%r3,%r8
	sth	%r3,338(%r2)
	lg	%r3,3136(%r15)
	llc	%r3,0(%r3,%r1)
	ar	%r3,%r8
	sth	%r3,340(%r2)
	lg	%r3,3144(%r15)
	llc	%r3,0(%r3,%r1)
	ar	%r3,%r8
	sth	%r3,342(%r2)
	lg	%r3,3152(%r15)
	llc	%r3,0(%r3,%r1)
	ar	%r3,%r8
	sth	%r3,344(%r2)
	lg	%r3,3160(%r15)
	llc	%r3,0(%r3,%r1)
	ar	%r3,%r8
	sth	%r3,346(%r2)
	lg	%r3,3168(%r15)
	llc	%r3,0(%r3,%r1)
	ar	%r3,%r8
	sth	%r3,348(%r2)
	lg	%r3,3176(%r15)
	llc	%r3,0(%r3,%r1)
	ar	%r3,%r8
	sth	%r3,350(%r2)
	lg	%r3,3184(%r15)
	llc	%r3,0(%r3,%r1)
	ar	%r3,%r8
	sth	%r3,352(%r2)
	lg	%r3,3192(%r15)
	llc	%r3,0(%r3,%r1)
	ar	%r3,%r8
	sth	%r3,354(%r2)
	lg	%r3,3200(%r15)
	llc	%r3,0(%r3,%r1)
	ar	%r3,%r8
	sth	%r3,356(%r2)
	lg	%r3,3208(%r15)
	llc	%r3,0(%r3,%r1)
	ar	%r3,%r8
	sth	%r3,358(%r2)
	lg	%r3,3216(%r15)
	llc	%r3,0(%r3,%r1)
	ar	%r3,%r8
	sth	%r3,360(%r2)
	lg	%r3,3224(%r15)
	llc	%r3,0(%r3,%r1)
	ar	%r3,%r8
	sth	%r3,362(%r2)
	lg	%r3,3232(%r15)
	llc	%r3,0(%r3,%r1)
	ar	%r3,%r8
	sth	%r3,364(%r2)
	lg	%r3,3240(%r15)
	llc	%r3,0(%r3,%r1)
	ar	%r3,%r8
	sth	%r3,366(%r2)
	lg	%r3,3248(%r15)
	llc	%r3,0(%r3,%r1)
	ar	%r3,%r8
	sth	%r3,368(%r2)
	lg	%r3,3256(%r15)
	llc	%r3,0(%r3,%r1)
	ar	%r3,%r8
	sth	%r3,370(%r2)
	lg	%r3,3264(%r15)
	llc	%r3,0(%r3,%r1)
	ar	%r3,%r8
	sth	%r3,372(%r2)
	lg	%r3,3272(%r15)
	llc	%r3,0(%r3,%r1)
	ar	%r3,%r8
	sth	%r3,374(%r2)
	lg	%r3,3280(%r15)
	llc	%r3,0(%r3,%r1)
	ar	%r3,%r8
	sth	%r3,376(%r2)
	lg	%r3,3288(%r15)
	llc	%r3,0(%r3,%r1)
	ar	%r3,%r8
	sth	%r3,378(%r2)
	lg	%r3,3296(%r15)
	llc	%r3,0(%r3,%r1)
	ar	%r3,%r8
	sth	%r3,380(%r2)
	lg	%r3,3304(%r15)
	llc	%r3,0(%r3,%r1)
	ar	%r3,%r8
	sth	%r3,382(%r2)
	l	%r3,3316(%r15)
	crjle	%r4,%r3,.L459
	lg	%r3,1448(%r15)
	llc	%r3,0(%r3,%r1)
	ar	%r3,%r8
	sth	%r3,384(%r2)
	lg	%r3,2304(%r15)
	llc	%r3,0(%r3,%r1)
	ar	%r3,%r8
	sth	%r3,386(%r2)
	lg	%r3,3352(%r15)
	llc	%r3,0(%r3,%r1)
	ar	%r3,%r8
	sth	%r3,388(%r2)
	lg	%r3,3360(%r15)
	llc	%r3,0(%r3,%r1)
	ar	%r3,%r8
	sth	%r3,390(%r2)
	lg	%r3,3368(%r15)
	llc	%r3,0(%r3,%r1)
	ar	%r3,%r8
	sth	%r3,392(%r2)
	lg	%r3,3376(%r15)
	llc	%r3,0(%r3,%r1)
	ar	%r3,%r8
	sth	%r3,394(%r2)
	lg	%r3,3384(%r15)
	llc	%r3,0(%r3,%r1)
	ar	%r3,%r8
	sth	%r3,396(%r2)
	lg	%r3,3392(%r15)
	llc	%r3,0(%r3,%r1)
	ar	%r3,%r8
	sth	%r3,398(%r2)
	lg	%r3,3400(%r15)
	llc	%r3,0(%r3,%r1)
	ar	%r3,%r8
	sth	%r3,400(%r2)
	lg	%r3,3408(%r15)
	llc	%r3,0(%r3,%r1)
	ar	%r3,%r8
	sth	%r3,402(%r2)
	lg	%r3,3416(%r15)
	llc	%r3,0(%r3,%r1)
	ar	%r3,%r8
	sth	%r3,404(%r2)
	lg	%r3,3424(%r15)
	llc	%r3,0(%r3,%r1)
	ar	%r3,%r8
	sth	%r3,406(%r2)
	lg	%r3,3432(%r15)
	llc	%r3,0(%r3,%r1)
	ar	%r3,%r8
	sth	%r3,408(%r2)
	lg	%r3,3440(%r15)
	llc	%r3,0(%r3,%r1)
	ar	%r3,%r8
	sth	%r3,410(%r2)
	lg	%r3,3448(%r15)
	llc	%r3,0(%r3,%r1)
	ar	%r3,%r8
	sth	%r3,412(%r2)
	lg	%r3,3456(%r15)
	llc	%r3,0(%r3,%r1)
	ar	%r3,%r8
	sth	%r3,414(%r2)
	lg	%r3,3464(%r15)
	llc	%r3,0(%r3,%r1)
	ar	%r3,%r8
	sth	%r3,416(%r2)
	lg	%r3,3472(%r15)
	llc	%r3,0(%r3,%r1)
	ar	%r3,%r8
	sth	%r3,418(%r2)
	lg	%r3,3480(%r15)
	llc	%r3,0(%r3,%r1)
	ar	%r3,%r8
	sth	%r3,420(%r2)
	lg	%r3,3488(%r15)
	llc	%r3,0(%r3,%r1)
	ar	%r3,%r8
	sth	%r3,422(%r2)
	lg	%r3,3496(%r15)
	llc	%r3,0(%r3,%r1)
	ar	%r3,%r8
	sth	%r3,424(%r2)
	lg	%r3,3504(%r15)
	llc	%r3,0(%r3,%r1)
	ar	%r3,%r8
	sth	%r3,426(%r2)
	lg	%r3,3512(%r15)
	llc	%r3,0(%r3,%r1)
	ar	%r3,%r8
	sth	%r3,428(%r2)
	lg	%r3,3520(%r15)
	llc	%r3,0(%r3,%r1)
	ar	%r3,%r8
	sth	%r3,430(%r2)
	lg	%r3,3528(%r15)
	llc	%r3,0(%r3,%r1)
	ar	%r3,%r8
	sth	%r3,432(%r2)
	lg	%r3,3536(%r15)
	llc	%r3,0(%r3,%r1)
	ar	%r3,%r8
	sth	%r3,434(%r2)
	lg	%r3,3544(%r15)
	llc	%r3,0(%r3,%r1)
	ar	%r3,%r8
	sth	%r3,436(%r2)
	lg	%r3,3552(%r15)
	llc	%r3,0(%r3,%r1)
	ar	%r3,%r8
	sth	%r3,438(%r2)
	lg	%r3,3560(%r15)
	llc	%r3,0(%r3,%r1)
	ar	%r3,%r8
	sth	%r3,440(%r2)
	lg	%r3,3568(%r15)
	llc	%r3,0(%r3,%r1)
	ar	%r3,%r8
	sth	%r3,442(%r2)
	lg	%r3,3576(%r15)
	llc	%r3,0(%r3,%r1)
	ar	%r3,%r8
	sth	%r3,444(%r2)
	lg	%r3,3584(%r15)
	llc	%r3,0(%r3,%r1)
	ar	%r3,%r8
	sth	%r3,446(%r2)
	l	%r3,3848(%r15)
	crjle	%r4,%r3,.L459
	lg	%r3,3048(%r15)
	llc	%r3,0(%r3,%r1)
	ar	%r3,%r8
	sth	%r3,448(%r2)
	lg	%r3,3056(%r15)
	llc	%r3,0(%r3,%r1)
	ar	%r3,%r8
	sth	%r3,450(%r2)
	lg	%r3,3608(%r15)
	llc	%r3,0(%r3,%r1)
	ar	%r3,%r8
	sth	%r3,452(%r2)
	lg	%r3,3616(%r15)
	llc	%r3,0(%r3,%r1)
	ar	%r3,%r8
	sth	%r3,454(%r2)
	lg	%r3,3624(%r15)
	llc	%r3,0(%r3,%r1)
	ar	%r3,%r8
	sth	%r3,456(%r2)
	lg	%r3,3632(%r15)
	llc	%r3,0(%r3,%r1)
	ar	%r3,%r8
	sth	%r3,458(%r2)
	lg	%r3,3640(%r15)
	llc	%r3,0(%r3,%r1)
	ar	%r3,%r8
	sth	%r3,460(%r2)
	lg	%r3,3648(%r15)
	llc	%r3,0(%r3,%r1)
	ar	%r3,%r8
	sth	%r3,462(%r2)
	lg	%r3,3656(%r15)
	llc	%r3,0(%r3,%r1)
	ar	%r3,%r8
	sth	%r3,464(%r2)
	lg	%r3,3664(%r15)
	llc	%r3,0(%r3,%r1)
	ar	%r3,%r8
	sth	%r3,466(%r2)
	lg	%r3,3672(%r15)
	llc	%r3,0(%r3,%r1)
	ar	%r3,%r8
	sth	%r3,468(%r2)
	lg	%r3,3680(%r15)
	llc	%r3,0(%r3,%r1)
	ar	%r3,%r8
	sth	%r3,470(%r2)
	lg	%r3,3688(%r15)
	llc	%r3,0(%r3,%r1)
	ar	%r3,%r8
	sth	%r3,472(%r2)
	lg	%r3,3696(%r15)
	llc	%r3,0(%r3,%r1)
	ar	%r3,%r8
	sth	%r3,474(%r2)
	lg	%r3,3704(%r15)
	llc	%r3,0(%r3,%r1)
	ar	%r3,%r8
	sth	%r3,476(%r2)
	lg	%r3,3712(%r15)
	llc	%r3,0(%r3,%r1)
	ar	%r3,%r8
	sth	%r3,478(%r2)
	lg	%r3,3720(%r15)
	llc	%r3,0(%r3,%r1)
	ar	%r3,%r8
	sth	%r3,480(%r2)
	lg	%r3,3728(%r15)
	llc	%r3,0(%r3,%r1)
	ar	%r3,%r8
	sth	%r3,482(%r2)
	lg	%r3,3736(%r15)
	llc	%r3,0(%r3,%r1)
	ar	%r3,%r8
	sth	%r3,484(%r2)
	lg	%r3,3744(%r15)
	llc	%r3,0(%r3,%r1)
	ar	%r3,%r8
	sth	%r3,486(%r2)
	lg	%r3,3752(%r15)
	llc	%r3,0(%r3,%r1)
	ar	%r3,%r8
	sth	%r3,488(%r2)
	lg	%r3,3760(%r15)
	llc	%r3,0(%r3,%r1)
	ar	%r3,%r8
	sth	%r3,490(%r2)
	lg	%r3,3768(%r15)
	llc	%r3,0(%r3,%r1)
	ar	%r3,%r8
	sth	%r3,492(%r2)
	lg	%r3,3776(%r15)
	llc	%r3,0(%r3,%r1)
	ar	%r3,%r8
	sth	%r3,494(%r2)
	lg	%r3,3784(%r15)
	llc	%r3,0(%r3,%r1)
	ar	%r3,%r8
	sth	%r3,496(%r2)
	lg	%r3,3792(%r15)
	llc	%r3,0(%r3,%r1)
	ar	%r3,%r8
	sth	%r3,498(%r2)
	lg	%r3,3800(%r15)
	llc	%r3,0(%r3,%r1)
	ar	%r3,%r8
	sth	%r3,500(%r2)
	lg	%r3,3808(%r15)
	llc	%r3,0(%r3,%r1)
	ar	%r3,%r8
	sth	%r3,502(%r2)
	lg	%r3,3816(%r15)
	llc	%r3,0(%r3,%r1)
	ar	%r3,%r8
	sth	%r3,504(%r2)
	lg	%r3,3824(%r15)
	llc	%r3,0(%r3,%r1)
	ar	%r3,%r8
	sth	%r3,506(%r2)
	lg	%r3,3832(%r15)
	llc	%r3,0(%r3,%r1)
	ar	%r3,%r8
	sth	%r3,508(%r2)
	lg	%r3,3840(%r15)
	llc	%r3,0(%r3,%r1)
	ar	%r3,%r8
	sth	%r3,510(%r2)
	l	%r3,3852(%r15)
	crjle	%r4,%r3,.L459
	lg	%r3,3320(%r15)
	llc	%r3,0(%r3,%r1)
	ar	%r3,%r8
	sth	%r3,512(%r2)
	lg	%r3,3328(%r15)
	llc	%r3,0(%r3,%r1)
	ar	%r3,%r8
	sth	%r3,514(%r2)
	lg	%r3,3872(%r15)
	llc	%r3,0(%r3,%r1)
	ar	%r3,%r8
	sth	%r3,516(%r2)
	lg	%r3,3880(%r15)
	llc	%r3,0(%r3,%r1)
	ar	%r3,%r8
	sth	%r3,518(%r2)
	lg	%r3,3888(%r15)
	llc	%r3,0(%r3,%r1)
	ar	%r3,%r8
	sth	%r3,520(%r2)
	lg	%r3,3896(%r15)
	llc	%r3,0(%r3,%r1)
	ar	%r3,%r8
	sth	%r3,522(%r2)
	lg	%r3,3904(%r15)
	llc	%r3,0(%r3,%r1)
	ar	%r3,%r8
	sth	%r3,524(%r2)
	lg	%r3,3912(%r15)
	llc	%r3,0(%r3,%r1)
	ar	%r3,%r8
	sth	%r3,526(%r2)
	lg	%r3,3920(%r15)
	llc	%r3,0(%r3,%r1)
	ar	%r3,%r8
	sth	%r3,528(%r2)
	lg	%r3,3928(%r15)
	llc	%r3,0(%r3,%r1)
	ar	%r3,%r8
	sth	%r3,530(%r2)
	lg	%r3,3936(%r15)
	llc	%r3,0(%r3,%r1)
	ar	%r3,%r8
	sth	%r3,532(%r2)
	lg	%r3,3944(%r15)
	llc	%r3,0(%r3,%r1)
	ar	%r3,%r8
	sth	%r3,534(%r2)
	lg	%r3,3952(%r15)
	llc	%r3,0(%r3,%r1)
	ar	%r3,%r8
	sth	%r3,536(%r2)
	lg	%r3,3960(%r15)
	llc	%r3,0(%r3,%r1)
	ar	%r3,%r8
	sth	%r3,538(%r2)
	lg	%r3,3968(%r15)
	llc	%r3,0(%r3,%r1)
	ar	%r3,%r8
	sth	%r3,540(%r2)
	lg	%r3,3976(%r15)
	llc	%r3,0(%r3,%r1)
	ar	%r3,%r8
	sth	%r3,542(%r2)
	lg	%r3,3984(%r15)
	llc	%r3,0(%r3,%r1)
	ar	%r3,%r8
	sth	%r3,544(%r2)
	lg	%r3,3992(%r15)
	llc	%r3,0(%r3,%r1)
	ar	%r3,%r8
	sth	%r3,546(%r2)
	lg	%r3,4000(%r15)
	llc	%r3,0(%r3,%r1)
	ar	%r3,%r8
	sth	%r3,548(%r2)
	lg	%r3,4008(%r15)
	llc	%r3,0(%r3,%r1)
	ar	%r3,%r8
	sth	%r3,550(%r2)
	lg	%r3,4016(%r15)
	llc	%r3,0(%r3,%r1)
	ar	%r3,%r8
	sth	%r3,552(%r2)
	lg	%r3,4024(%r15)
	llc	%r3,0(%r3,%r1)
	ar	%r3,%r8
	sth	%r3,554(%r2)
	lg	%r3,4032(%r15)
	llc	%r3,0(%r3,%r1)
	ar	%r3,%r8
	sth	%r3,556(%r2)
	lg	%r3,4040(%r15)
	llc	%r3,0(%r3,%r1)
	ar	%r3,%r8
	sth	%r3,558(%r2)
	lg	%r3,4048(%r15)
	llc	%r3,0(%r3,%r1)
	ar	%r3,%r8
	sth	%r3,560(%r2)
	lg	%r3,4056(%r15)
	llc	%r3,0(%r3,%r1)
	ar	%r3,%r8
	sth	%r3,562(%r2)
	lg	%r3,4064(%r15)
	llc	%r3,0(%r3,%r1)
	ar	%r3,%r8
	sth	%r3,564(%r2)
	lg	%r3,4072(%r15)
	llc	%r3,0(%r3,%r1)
	ar	%r3,%r8
	sth	%r3,566(%r2)
	lg	%r3,4080(%r15)
	llc	%r3,0(%r3,%r1)
	ar	%r3,%r8
	sth	%r3,568(%r2)
	lg	%r3,4088(%r15)
	llc	%r3,0(%r3,%r1)
	ar	%r3,%r8
	sth	%r3,570(%r2)
	lg	%r3,4096(%r15)
	llc	%r3,0(%r3,%r1)
	ar	%r3,%r8
	sth	%r3,572(%r2)
	lg	%r3,4104(%r15)
	llc	%r3,0(%r3,%r1)
	ar	%r3,%r8
	sth	%r3,574(%r2)
	ly	%r3,4112(%r15)
	crjle	%r4,%r3,.L459
	lg	%r3,3336(%r15)
	llc	%r3,0(%r3,%r1)
	ar	%r3,%r8
	sth	%r3,576(%r2)
	lg	%r3,3344(%r15)
	llc	%r3,0(%r3,%r1)
	ar	%r3,%r8
	sth	%r3,578(%r2)
	lg	%r3,4120(%r15)
	llc	%r3,0(%r3,%r1)
	ar	%r3,%r8
	sth	%r3,580(%r2)
	lg	%r3,4128(%r15)
	llc	%r3,0(%r3,%r1)
	ar	%r3,%r8
	sth	%r3,582(%r2)
	lg	%r3,4136(%r15)
	llc	%r3,0(%r3,%r1)
	ar	%r3,%r8
	sth	%r3,584(%r2)
	lg	%r3,4144(%r15)
	llc	%r3,0(%r3,%r1)
	ar	%r3,%r8
	sth	%r3,586(%r2)
	lg	%r3,4152(%r15)
	llc	%r3,0(%r3,%r1)
	ar	%r3,%r8
	sth	%r3,588(%r2)
	lg	%r3,4160(%r15)
	llc	%r3,0(%r3,%r1)
	ar	%r3,%r8
	sth	%r3,590(%r2)
	lg	%r3,4168(%r15)
	llc	%r3,0(%r3,%r1)
	ar	%r3,%r8
	sth	%r3,592(%r2)
	lg	%r3,4176(%r15)
	llc	%r3,0(%r3,%r1)
	ar	%r3,%r8
	sth	%r3,594(%r2)
	lg	%r3,4184(%r15)
	llc	%r3,0(%r3,%r1)
	ar	%r3,%r8
	sth	%r3,596(%r2)
	lg	%r3,4192(%r15)
	llc	%r3,0(%r3,%r1)
	ar	%r3,%r8
	sth	%r3,598(%r2)
	lg	%r3,4200(%r15)
	llc	%r3,0(%r3,%r1)
	ar	%r3,%r8
	sth	%r3,600(%r2)
	lg	%r3,4208(%r15)
	llc	%r3,0(%r3,%r1)
	ar	%r3,%r8
	sth	%r3,602(%r2)
	lg	%r3,4216(%r15)
	llc	%r3,0(%r3,%r1)
	ar	%r3,%r8
	sth	%r3,604(%r2)
	lg	%r3,4224(%r15)
	llc	%r3,0(%r3,%r1)
	ar	%r3,%r8
	sth	%r3,606(%r2)
	lg	%r3,4232(%r15)
	llc	%r3,0(%r3,%r1)
	ar	%r3,%r8
	sth	%r3,608(%r2)
	lg	%r3,4240(%r15)
	llc	%r3,0(%r3,%r1)
	ar	%r3,%r8
	sth	%r3,610(%r2)
	lg	%r3,4248(%r15)
	llc	%r3,0(%r3,%r1)
	ar	%r3,%r8
	sth	%r3,612(%r2)
	lg	%r3,4256(%r15)
	llc	%r3,0(%r3,%r1)
	ar	%r3,%r8
	sth	%r3,614(%r2)
	lg	%r3,4264(%r15)
	llc	%r3,0(%r3,%r1)
	ar	%r3,%r8
	sth	%r3,616(%r2)
	lg	%r3,4272(%r15)
	llc	%r3,0(%r3,%r1)
	ar	%r3,%r8
	sth	%r3,618(%r2)
	lg	%r3,4280(%r15)
	llc	%r3,0(%r3,%r1)
	ar	%r3,%r8
	sth	%r3,620(%r2)
	lg	%r3,4288(%r15)
	llc	%r3,0(%r3,%r1)
	ar	%r3,%r8
	sth	%r3,622(%r2)
	lg	%r3,4296(%r15)
	llc	%r3,0(%r3,%r1)
	ar	%r3,%r8
	sth	%r3,624(%r2)
	lg	%r3,4304(%r15)
	llc	%r3,0(%r3,%r1)
	ar	%r3,%r8
	sth	%r3,626(%r2)
	lg	%r3,4312(%r15)
	llc	%r3,0(%r3,%r1)
	ar	%r3,%r8
	sth	%r3,628(%r2)
	lg	%r3,4320(%r15)
	llc	%r3,0(%r3,%r1)
	ar	%r3,%r8
	sth	%r3,630(%r2)
	lg	%r3,4328(%r15)
	llc	%r3,0(%r3,%r1)
	ar	%r3,%r8
	sth	%r3,632(%r2)
	lg	%r3,4336(%r15)
	llc	%r3,0(%r3,%r1)
	ar	%r3,%r8
	sth	%r3,634(%r2)
	lg	%r3,4344(%r15)
	llc	%r3,0(%r3,%r1)
	ar	%r3,%r8
	sth	%r3,636(%r2)
	lg	%r3,4352(%r15)
	llc	%r3,0(%r3,%r1)
	ar	%r3,%r8
	sth	%r3,638(%r2)
	ly	%r3,4600(%r15)
	crjle	%r4,%r3,.L459
	lg	%r3,3592(%r15)
	llc	%r3,0(%r3,%r1)
	ar	%r3,%r8
	sth	%r3,640(%r2)
	lg	%r3,3600(%r15)
	llc	%r3,0(%r3,%r1)
	ar	%r3,%r8
	sth	%r3,642(%r2)
	lg	%r3,4360(%r15)
	llc	%r3,0(%r3,%r1)
	ar	%r3,%r8
	sth	%r3,644(%r2)
	lg	%r3,4368(%r15)
	llc	%r3,0(%r3,%r1)
	ar	%r3,%r8
	sth	%r3,646(%r2)
	lg	%r3,4376(%r15)
	llc	%r3,0(%r3,%r1)
	ar	%r3,%r8
	sth	%r3,648(%r2)
	lg	%r3,4384(%r15)
	llc	%r3,0(%r3,%r1)
	ar	%r3,%r8
	sth	%r3,650(%r2)
	lg	%r3,4392(%r15)
	llc	%r3,0(%r3,%r1)
	ar	%r3,%r8
	sth	%r3,652(%r2)
	lg	%r3,4400(%r15)
	llc	%r3,0(%r3,%r1)
	ar	%r3,%r8
	sth	%r3,654(%r2)
	lg	%r3,4408(%r15)
	llc	%r3,0(%r3,%r1)
	ar	%r3,%r8
	sth	%r3,656(%r2)
	lg	%r3,4416(%r15)
	llc	%r3,0(%r3,%r1)
	ar	%r3,%r8
	sth	%r3,658(%r2)
	lg	%r3,4424(%r15)
	llc	%r3,0(%r3,%r1)
	ar	%r3,%r8
	sth	%r3,660(%r2)
	lg	%r3,4432(%r15)
	llc	%r3,0(%r3,%r1)
	ar	%r3,%r8
	sth	%r3,662(%r2)
	lg	%r3,4440(%r15)
	llc	%r3,0(%r3,%r1)
	ar	%r3,%r8
	sth	%r3,664(%r2)
	lg	%r3,4448(%r15)
	llc	%r3,0(%r3,%r1)
	ar	%r3,%r8
	sth	%r3,666(%r2)
	lg	%r3,4456(%r15)
	llc	%r3,0(%r3,%r1)
	ar	%r3,%r8
	sth	%r3,668(%r2)
	lg	%r3,4464(%r15)
	llc	%r3,0(%r3,%r1)
	ar	%r3,%r8
	sth	%r3,670(%r2)
	lg	%r3,4472(%r15)
	llc	%r3,0(%r3,%r1)
	ar	%r3,%r8
	sth	%r3,672(%r2)
	lg	%r3,4480(%r15)
	llc	%r3,0(%r3,%r1)
	ar	%r3,%r8
	sth	%r3,674(%r2)
	lg	%r3,4488(%r15)
	llc	%r3,0(%r3,%r1)
	ar	%r3,%r8
	sth	%r3,676(%r2)
	lg	%r3,4496(%r15)
	llc	%r3,0(%r3,%r1)
	ar	%r3,%r8
	sth	%r3,678(%r2)
	lg	%r3,4504(%r15)
	llc	%r3,0(%r3,%r1)
	ar	%r3,%r8
	sth	%r3,680(%r2)
	lg	%r3,4512(%r15)
	llc	%r3,0(%r3,%r1)
	ar	%r3,%r8
	sth	%r3,682(%r2)
	lg	%r3,4520(%r15)
	llc	%r3,0(%r3,%r1)
	ar	%r3,%r8
	sth	%r3,684(%r2)
	lg	%r3,4528(%r15)
	llc	%r3,0(%r3,%r1)
	ar	%r3,%r8
	sth	%r3,686(%r2)
	lg	%r3,4536(%r15)
	llc	%r3,0(%r3,%r1)
	ar	%r3,%r8
	sth	%r3,688(%r2)
	lg	%r3,4544(%r15)
	llc	%r3,0(%r3,%r1)
	ar	%r3,%r8
	sth	%r3,690(%r2)
	lg	%r3,4552(%r15)
	llc	%r3,0(%r3,%r1)
	ar	%r3,%r8
	sth	%r3,692(%r2)
	lg	%r3,4560(%r15)
	llc	%r3,0(%r3,%r1)
	ar	%r3,%r8
	sth	%r3,694(%r2)
	lg	%r3,4568(%r15)
	llc	%r3,0(%r3,%r1)
	ar	%r3,%r8
	sth	%r3,696(%r2)
	lg	%r3,4576(%r15)
	llc	%r3,0(%r3,%r1)
	ar	%r3,%r8
	sth	%r3,698(%r2)
	lg	%r3,4584(%r15)
	llc	%r3,0(%r3,%r1)
	ar	%r3,%r8
	sth	%r3,700(%r2)
	lg	%r3,4592(%r15)
	llc	%r3,0(%r3,%r1)
	ar	%r3,%r8
	sth	%r3,702(%r2)
	ly	%r3,4604(%r15)
	crjle	%r4,%r3,.L459
	lg	%r3,3856(%r15)
	llc	%r3,0(%r3,%r1)
	ar	%r3,%r8
	sth	%r3,704(%r2)
	lg	%r3,3864(%r15)
	llc	%r3,0(%r3,%r1)
	ar	%r3,%r8
	sth	%r3,706(%r2)
	lg	%r3,4608(%r15)
	llc	%r3,0(%r3,%r1)
	ar	%r3,%r8
	sth	%r3,708(%r2)
	lg	%r3,4616(%r15)
	llc	%r3,0(%r3,%r1)
	ar	%r3,%r8
	sth	%r3,710(%r2)
	lg	%r3,4624(%r15)
	llc	%r3,0(%r3,%r1)
	ar	%r3,%r8
	sth	%r3,712(%r2)
	lg	%r3,4632(%r15)
	llc	%r3,0(%r3,%r1)
	ar	%r3,%r8
	sth	%r3,714(%r2)
	lg	%r3,4640(%r15)
	llc	%r3,0(%r3,%r1)
	ar	%r3,%r8
	sth	%r3,716(%r2)
	lg	%r3,4648(%r15)
	llc	%r3,0(%r3,%r1)
	ar	%r3,%r8
	sth	%r3,718(%r2)
	lg	%r3,4656(%r15)
	llc	%r3,0(%r3,%r1)
	ar	%r3,%r8
	sth	%r3,720(%r2)
	lg	%r3,4664(%r15)
	llc	%r3,0(%r3,%r1)
	ar	%r3,%r8
	sth	%r3,722(%r2)
	lg	%r3,4672(%r15)
	llc	%r3,0(%r3,%r1)
	ar	%r3,%r8
	sth	%r3,724(%r2)
	lg	%r3,4680(%r15)
	llc	%r3,0(%r3,%r1)
	ar	%r3,%r8
	sth	%r3,726(%r2)
	lg	%r3,4688(%r15)
	llc	%r3,0(%r3,%r1)
	ar	%r3,%r8
	sth	%r3,728(%r2)
	lg	%r3,4696(%r15)
	llc	%r3,0(%r3,%r1)
	ar	%r3,%r8
	sth	%r3,730(%r2)
	lg	%r3,4704(%r15)
	llc	%r3,0(%r3,%r1)
	ar	%r3,%r8
	sth	%r3,732(%r2)
	lg	%r3,4712(%r15)
	llc	%r3,0(%r3,%r1)
	ar	%r3,%r8
	sth	%r3,734(%r2)
	lg	%r3,4720(%r15)
	llc	%r3,0(%r3,%r1)
	ar	%r3,%r8
	sth	%r3,736(%r2)
	lg	%r3,4728(%r15)
	llc	%r3,0(%r3,%r1)
	ar	%r3,%r8
	sth	%r3,738(%r2)
	lg	%r3,4736(%r15)
	llc	%r3,0(%r3,%r1)
	ar	%r3,%r8
	sth	%r3,740(%r2)
	lg	%r3,4744(%r15)
	llc	%r3,0(%r3,%r1)
	ar	%r3,%r8
	sth	%r3,742(%r2)
	lg	%r3,4752(%r15)
	llc	%r3,0(%r3,%r1)
	ar	%r3,%r8
	sth	%r3,744(%r2)
	lg	%r3,4760(%r15)
	llc	%r3,0(%r3,%r1)
	ar	%r3,%r8
	sth	%r3,746(%r2)
	lg	%r3,4768(%r15)
	llc	%r3,0(%r3,%r1)
	ar	%r3,%r8
	sth	%r3,748(%r2)
	lg	%r3,4776(%r15)
	llc	%r3,0(%r3,%r1)
	ar	%r3,%r8
	sth	%r3,750(%r2)
	lg	%r3,4784(%r15)
	llc	%r3,0(%r3,%r1)
	ar	%r3,%r8
	sth	%r3,752(%r2)
	lg	%r3,4792(%r15)
	llc	%r3,0(%r3,%r1)
	ar	%r3,%r8
	sth	%r3,754(%r2)
	lg	%r3,4800(%r15)
	llc	%r3,0(%r3,%r1)
	ar	%r3,%r8
	sth	%r3,756(%r2)
	lg	%r3,4808(%r15)
	llc	%r3,0(%r3,%r1)
	ar	%r3,%r8
	sth	%r3,758(%r2)
	lg	%r3,4816(%r15)
	llc	%r3,0(%r3,%r1)
	ar	%r3,%r8
